
mythread:     file format elf64-x86-64


Disassembly of section .init:

0000000000001000 <_init>:
    1000:	f3 0f 1e fa          	endbr64 
    1004:	48 83 ec 08          	sub    $0x8,%rsp
    1008:	48 8b 05 d9 5f 00 00 	mov    0x5fd9(%rip),%rax        # 6fe8 <__gmon_start__@Base>
    100f:	48 85 c0             	test   %rax,%rax
    1012:	74 02                	je     1016 <_init+0x16>
    1014:	ff d0                	call   *%rax
    1016:	48 83 c4 08          	add    $0x8,%rsp
    101a:	c3                   	ret    

Disassembly of section .plt:

0000000000001020 <.plt>:
    1020:	ff 35 c2 5e 00 00    	push   0x5ec2(%rip)        # 6ee8 <_GLOBAL_OFFSET_TABLE_+0x8>
    1026:	f2 ff 25 c3 5e 00 00 	bnd jmp *0x5ec3(%rip)        # 6ef0 <_GLOBAL_OFFSET_TABLE_+0x10>
    102d:	0f 1f 00             	nopl   (%rax)
    1030:	f3 0f 1e fa          	endbr64 
    1034:	68 00 00 00 00       	push   $0x0
    1039:	f2 e9 e1 ff ff ff    	bnd jmp 1020 <_init+0x20>
    103f:	90                   	nop
    1040:	f3 0f 1e fa          	endbr64 
    1044:	68 01 00 00 00       	push   $0x1
    1049:	f2 e9 d1 ff ff ff    	bnd jmp 1020 <_init+0x20>
    104f:	90                   	nop
    1050:	f3 0f 1e fa          	endbr64 
    1054:	68 02 00 00 00       	push   $0x2
    1059:	f2 e9 c1 ff ff ff    	bnd jmp 1020 <_init+0x20>
    105f:	90                   	nop
    1060:	f3 0f 1e fa          	endbr64 
    1064:	68 03 00 00 00       	push   $0x3
    1069:	f2 e9 b1 ff ff ff    	bnd jmp 1020 <_init+0x20>
    106f:	90                   	nop
    1070:	f3 0f 1e fa          	endbr64 
    1074:	68 04 00 00 00       	push   $0x4
    1079:	f2 e9 a1 ff ff ff    	bnd jmp 1020 <_init+0x20>
    107f:	90                   	nop
    1080:	f3 0f 1e fa          	endbr64 
    1084:	68 05 00 00 00       	push   $0x5
    1089:	f2 e9 91 ff ff ff    	bnd jmp 1020 <_init+0x20>
    108f:	90                   	nop
    1090:	f3 0f 1e fa          	endbr64 
    1094:	68 06 00 00 00       	push   $0x6
    1099:	f2 e9 81 ff ff ff    	bnd jmp 1020 <_init+0x20>
    109f:	90                   	nop
    10a0:	f3 0f 1e fa          	endbr64 
    10a4:	68 07 00 00 00       	push   $0x7
    10a9:	f2 e9 71 ff ff ff    	bnd jmp 1020 <_init+0x20>
    10af:	90                   	nop
    10b0:	f3 0f 1e fa          	endbr64 
    10b4:	68 08 00 00 00       	push   $0x8
    10b9:	f2 e9 61 ff ff ff    	bnd jmp 1020 <_init+0x20>
    10bf:	90                   	nop
    10c0:	f3 0f 1e fa          	endbr64 
    10c4:	68 09 00 00 00       	push   $0x9
    10c9:	f2 e9 51 ff ff ff    	bnd jmp 1020 <_init+0x20>
    10cf:	90                   	nop
    10d0:	f3 0f 1e fa          	endbr64 
    10d4:	68 0a 00 00 00       	push   $0xa
    10d9:	f2 e9 41 ff ff ff    	bnd jmp 1020 <_init+0x20>
    10df:	90                   	nop
    10e0:	f3 0f 1e fa          	endbr64 
    10e4:	68 0b 00 00 00       	push   $0xb
    10e9:	f2 e9 31 ff ff ff    	bnd jmp 1020 <_init+0x20>
    10ef:	90                   	nop
    10f0:	f3 0f 1e fa          	endbr64 
    10f4:	68 0c 00 00 00       	push   $0xc
    10f9:	f2 e9 21 ff ff ff    	bnd jmp 1020 <_init+0x20>
    10ff:	90                   	nop
    1100:	f3 0f 1e fa          	endbr64 
    1104:	68 0d 00 00 00       	push   $0xd
    1109:	f2 e9 11 ff ff ff    	bnd jmp 1020 <_init+0x20>
    110f:	90                   	nop
    1110:	f3 0f 1e fa          	endbr64 
    1114:	68 0e 00 00 00       	push   $0xe
    1119:	f2 e9 01 ff ff ff    	bnd jmp 1020 <_init+0x20>
    111f:	90                   	nop
    1120:	f3 0f 1e fa          	endbr64 
    1124:	68 0f 00 00 00       	push   $0xf
    1129:	f2 e9 f1 fe ff ff    	bnd jmp 1020 <_init+0x20>
    112f:	90                   	nop
    1130:	f3 0f 1e fa          	endbr64 
    1134:	68 10 00 00 00       	push   $0x10
    1139:	f2 e9 e1 fe ff ff    	bnd jmp 1020 <_init+0x20>
    113f:	90                   	nop
    1140:	f3 0f 1e fa          	endbr64 
    1144:	68 11 00 00 00       	push   $0x11
    1149:	f2 e9 d1 fe ff ff    	bnd jmp 1020 <_init+0x20>
    114f:	90                   	nop
    1150:	f3 0f 1e fa          	endbr64 
    1154:	68 12 00 00 00       	push   $0x12
    1159:	f2 e9 c1 fe ff ff    	bnd jmp 1020 <_init+0x20>
    115f:	90                   	nop
    1160:	f3 0f 1e fa          	endbr64 
    1164:	68 13 00 00 00       	push   $0x13
    1169:	f2 e9 b1 fe ff ff    	bnd jmp 1020 <_init+0x20>
    116f:	90                   	nop
    1170:	f3 0f 1e fa          	endbr64 
    1174:	68 14 00 00 00       	push   $0x14
    1179:	f2 e9 a1 fe ff ff    	bnd jmp 1020 <_init+0x20>
    117f:	90                   	nop
    1180:	f3 0f 1e fa          	endbr64 
    1184:	68 15 00 00 00       	push   $0x15
    1189:	f2 e9 91 fe ff ff    	bnd jmp 1020 <_init+0x20>
    118f:	90                   	nop
    1190:	f3 0f 1e fa          	endbr64 
    1194:	68 16 00 00 00       	push   $0x16
    1199:	f2 e9 81 fe ff ff    	bnd jmp 1020 <_init+0x20>
    119f:	90                   	nop
    11a0:	f3 0f 1e fa          	endbr64 
    11a4:	68 17 00 00 00       	push   $0x17
    11a9:	f2 e9 71 fe ff ff    	bnd jmp 1020 <_init+0x20>
    11af:	90                   	nop
    11b0:	f3 0f 1e fa          	endbr64 
    11b4:	68 18 00 00 00       	push   $0x18
    11b9:	f2 e9 61 fe ff ff    	bnd jmp 1020 <_init+0x20>
    11bf:	90                   	nop
    11c0:	f3 0f 1e fa          	endbr64 
    11c4:	68 19 00 00 00       	push   $0x19
    11c9:	f2 e9 51 fe ff ff    	bnd jmp 1020 <_init+0x20>
    11cf:	90                   	nop
    11d0:	f3 0f 1e fa          	endbr64 
    11d4:	68 1a 00 00 00       	push   $0x1a
    11d9:	f2 e9 41 fe ff ff    	bnd jmp 1020 <_init+0x20>
    11df:	90                   	nop

Disassembly of section .plt.got:

00000000000011e0 <__cxa_finalize@plt>:
    11e0:	f3 0f 1e fa          	endbr64 
    11e4:	f2 ff 25 e5 5d 00 00 	bnd jmp *0x5de5(%rip)        # 6fd0 <__cxa_finalize@GLIBC_2.2.5>
    11eb:	0f 1f 44 00 00       	nopl   0x0(%rax,%rax,1)

Disassembly of section .plt.sec:

00000000000011f0 <printf@plt>:
    11f0:	f3 0f 1e fa          	endbr64 
    11f4:	f2 ff 25 fd 5c 00 00 	bnd jmp *0x5cfd(%rip)        # 6ef8 <printf@GLIBC_2.2.5>
    11fb:	0f 1f 44 00 00       	nopl   0x0(%rax,%rax,1)

0000000000001200 <_ZNSt7__cxx1112basic_stringIcSt11char_traitsIcESaIcEE6insertEmPKc@plt>:
    1200:	f3 0f 1e fa          	endbr64 
    1204:	f2 ff 25 f5 5c 00 00 	bnd jmp *0x5cf5(%rip)        # 6f00 <_ZNSt7__cxx1112basic_stringIcSt11char_traitsIcESaIcEE6insertEmPKc@GLIBCXX_3.4.21>
    120b:	0f 1f 44 00 00       	nopl   0x0(%rax,%rax,1)

0000000000001210 <_ZSt17__throw_bad_allocv@plt>:
    1210:	f3 0f 1e fa          	endbr64 
    1214:	f2 ff 25 ed 5c 00 00 	bnd jmp *0x5ced(%rip)        # 6f08 <_ZSt17__throw_bad_allocv@GLIBCXX_3.4>
    121b:	0f 1f 44 00 00       	nopl   0x0(%rax,%rax,1)

0000000000001220 <__cxa_begin_catch@plt>:
    1220:	f3 0f 1e fa          	endbr64 
    1224:	f2 ff 25 e5 5c 00 00 	bnd jmp *0x5ce5(%rip)        # 6f10 <__cxa_begin_catch@CXXABI_1.3>
    122b:	0f 1f 44 00 00       	nopl   0x0(%rax,%rax,1)

0000000000001230 <_ZNKSt7__cxx1112basic_stringIcSt11char_traitsIcESaIcEE5c_strEv@plt>:
    1230:	f3 0f 1e fa          	endbr64 
    1234:	f2 ff 25 dd 5c 00 00 	bnd jmp *0x5cdd(%rip)        # 6f18 <_ZNKSt7__cxx1112basic_stringIcSt11char_traitsIcESaIcEE5c_strEv@GLIBCXX_3.4.21>
    123b:	0f 1f 44 00 00       	nopl   0x0(%rax,%rax,1)

0000000000001240 <_ZSt20__throw_length_errorPKc@plt>:
    1240:	f3 0f 1e fa          	endbr64 
    1244:	f2 ff 25 d5 5c 00 00 	bnd jmp *0x5cd5(%rip)        # 6f20 <_ZSt20__throw_length_errorPKc@GLIBCXX_3.4>
    124b:	0f 1f 44 00 00       	nopl   0x0(%rax,%rax,1)

0000000000001250 <_ZNSt7__cxx1112basic_stringIcSt11char_traitsIcESaIcEEC1EOS4_@plt>:
    1250:	f3 0f 1e fa          	endbr64 
    1254:	f2 ff 25 cd 5c 00 00 	bnd jmp *0x5ccd(%rip)        # 6f28 <_ZNSt7__cxx1112basic_stringIcSt11char_traitsIcESaIcEEC1EOS4_@GLIBCXX_3.4.21>
    125b:	0f 1f 44 00 00       	nopl   0x0(%rax,%rax,1)

0000000000001260 <_ZNSt7__cxx1112basic_stringIcSt11char_traitsIcESaIcEED1Ev@plt>:
    1260:	f3 0f 1e fa          	endbr64 
    1264:	f2 ff 25 c5 5c 00 00 	bnd jmp *0x5cc5(%rip)        # 6f30 <_ZNSt7__cxx1112basic_stringIcSt11char_traitsIcESaIcEED1Ev@GLIBCXX_3.4.21>
    126b:	0f 1f 44 00 00       	nopl   0x0(%rax,%rax,1)

0000000000001270 <_ZNSt7__cxx1112basic_stringIcSt11char_traitsIcESaIcEEC1EmcRKS3_@plt>:
    1270:	f3 0f 1e fa          	endbr64 
    1274:	f2 ff 25 bd 5c 00 00 	bnd jmp *0x5cbd(%rip)        # 6f38 <_ZNSt7__cxx1112basic_stringIcSt11char_traitsIcESaIcEEC1EmcRKS3_@GLIBCXX_3.4.21>
    127b:	0f 1f 44 00 00       	nopl   0x0(%rax,%rax,1)

0000000000001280 <_ZSt28__throw_bad_array_new_lengthv@plt>:
    1280:	f3 0f 1e fa          	endbr64 
    1284:	f2 ff 25 b5 5c 00 00 	bnd jmp *0x5cb5(%rip)        # 6f40 <_ZSt28__throw_bad_array_new_lengthv@GLIBCXX_3.4.29>
    128b:	0f 1f 44 00 00       	nopl   0x0(%rax,%rax,1)

0000000000001290 <__cxa_atexit@plt>:
    1290:	f3 0f 1e fa          	endbr64 
    1294:	f2 ff 25 ad 5c 00 00 	bnd jmp *0x5cad(%rip)        # 6f48 <__cxa_atexit@GLIBC_2.2.5>
    129b:	0f 1f 44 00 00       	nopl   0x0(%rax,%rax,1)

00000000000012a0 <pthread_join@plt>:
    12a0:	f3 0f 1e fa          	endbr64 
    12a4:	f2 ff 25 a5 5c 00 00 	bnd jmp *0x5ca5(%rip)        # 6f50 <pthread_join@GLIBC_2.34>
    12ab:	0f 1f 44 00 00       	nopl   0x0(%rax,%rax,1)

00000000000012b0 <_ZdlPv@plt>:
    12b0:	f3 0f 1e fa          	endbr64 
    12b4:	f2 ff 25 9d 5c 00 00 	bnd jmp *0x5c9d(%rip)        # 6f58 <_ZdlPv@GLIBCXX_3.4>
    12bb:	0f 1f 44 00 00       	nopl   0x0(%rax,%rax,1)

00000000000012c0 <_Znwm@plt>:
    12c0:	f3 0f 1e fa          	endbr64 
    12c4:	f2 ff 25 95 5c 00 00 	bnd jmp *0x5c95(%rip)        # 6f60 <_Znwm@GLIBCXX_3.4>
    12cb:	0f 1f 44 00 00       	nopl   0x0(%rax,%rax,1)

00000000000012d0 <_ZNSaIcED1Ev@plt>:
    12d0:	f3 0f 1e fa          	endbr64 
    12d4:	f2 ff 25 8d 5c 00 00 	bnd jmp *0x5c8d(%rip)        # 6f68 <_ZNSaIcED1Ev@GLIBCXX_3.4>
    12db:	0f 1f 44 00 00       	nopl   0x0(%rax,%rax,1)

00000000000012e0 <__stack_chk_fail@plt>:
    12e0:	f3 0f 1e fa          	endbr64 
    12e4:	f2 ff 25 85 5c 00 00 	bnd jmp *0x5c85(%rip)        # 6f70 <__stack_chk_fail@GLIBC_2.4>
    12eb:	0f 1f 44 00 00       	nopl   0x0(%rax,%rax,1)

00000000000012f0 <_ZNSt7__cxx1112basic_stringIcSt11char_traitsIcESaIcEEaSEOS4_@plt>:
    12f0:	f3 0f 1e fa          	endbr64 
    12f4:	f2 ff 25 7d 5c 00 00 	bnd jmp *0x5c7d(%rip)        # 6f78 <_ZNSt7__cxx1112basic_stringIcSt11char_traitsIcESaIcEEaSEOS4_@GLIBCXX_3.4.21>
    12fb:	0f 1f 44 00 00       	nopl   0x0(%rax,%rax,1)

0000000000001300 <_ZNSt7__cxx1112basic_stringIcSt11char_traitsIcESaIcEEC1Ev@plt>:
    1300:	f3 0f 1e fa          	endbr64 
    1304:	f2 ff 25 75 5c 00 00 	bnd jmp *0x5c75(%rip)        # 6f80 <_ZNSt7__cxx1112basic_stringIcSt11char_traitsIcESaIcEEC1Ev@GLIBCXX_3.4.21>
    130b:	0f 1f 44 00 00       	nopl   0x0(%rax,%rax,1)

0000000000001310 <usleep@plt>:
    1310:	f3 0f 1e fa          	endbr64 
    1314:	f2 ff 25 6d 5c 00 00 	bnd jmp *0x5c6d(%rip)        # 6f88 <usleep@GLIBC_2.2.5>
    131b:	0f 1f 44 00 00       	nopl   0x0(%rax,%rax,1)

0000000000001320 <__cxa_rethrow@plt>:
    1320:	f3 0f 1e fa          	endbr64 
    1324:	f2 ff 25 65 5c 00 00 	bnd jmp *0x5c65(%rip)        # 6f90 <__cxa_rethrow@CXXABI_1.3>
    132b:	0f 1f 44 00 00       	nopl   0x0(%rax,%rax,1)

0000000000001330 <_ZNSt8ios_base4InitC1Ev@plt>:
    1330:	f3 0f 1e fa          	endbr64 
    1334:	f2 ff 25 5d 5c 00 00 	bnd jmp *0x5c5d(%rip)        # 6f98 <_ZNSt8ios_base4InitC1Ev@GLIBCXX_3.4>
    133b:	0f 1f 44 00 00       	nopl   0x0(%rax,%rax,1)

0000000000001340 <memmove@plt>:
    1340:	f3 0f 1e fa          	endbr64 
    1344:	f2 ff 25 55 5c 00 00 	bnd jmp *0x5c55(%rip)        # 6fa0 <memmove@GLIBC_2.2.5>
    134b:	0f 1f 44 00 00       	nopl   0x0(%rax,%rax,1)

0000000000001350 <__cxa_end_catch@plt>:
    1350:	f3 0f 1e fa          	endbr64 
    1354:	f2 ff 25 4d 5c 00 00 	bnd jmp *0x5c4d(%rip)        # 6fa8 <__cxa_end_catch@CXXABI_1.3>
    135b:	0f 1f 44 00 00       	nopl   0x0(%rax,%rax,1)

0000000000001360 <_Unwind_Resume@plt>:
    1360:	f3 0f 1e fa          	endbr64 
    1364:	f2 ff 25 45 5c 00 00 	bnd jmp *0x5c45(%rip)        # 6fb0 <_Unwind_Resume@GCC_3.0>
    136b:	0f 1f 44 00 00       	nopl   0x0(%rax,%rax,1)

0000000000001370 <_ZNSaIcEC1Ev@plt>:
    1370:	f3 0f 1e fa          	endbr64 
    1374:	f2 ff 25 3d 5c 00 00 	bnd jmp *0x5c3d(%rip)        # 6fb8 <_ZNSaIcEC1Ev@GLIBCXX_3.4>
    137b:	0f 1f 44 00 00       	nopl   0x0(%rax,%rax,1)

0000000000001380 <pthread_create@plt>:
    1380:	f3 0f 1e fa          	endbr64 
    1384:	f2 ff 25 35 5c 00 00 	bnd jmp *0x5c35(%rip)        # 6fc0 <pthread_create@GLIBC_2.34>
    138b:	0f 1f 44 00 00       	nopl   0x0(%rax,%rax,1)

0000000000001390 <_ZNSt7__cxx1112basic_stringIcSt11char_traitsIcESaIcEEixEm@plt>:
    1390:	f3 0f 1e fa          	endbr64 
    1394:	f2 ff 25 2d 5c 00 00 	bnd jmp *0x5c2d(%rip)        # 6fc8 <_ZNSt7__cxx1112basic_stringIcSt11char_traitsIcESaIcEEixEm@GLIBCXX_3.4.21>
    139b:	0f 1f 44 00 00       	nopl   0x0(%rax,%rax,1)

Disassembly of section .text:

00000000000013a0 <_start>:
    13a0:	f3 0f 1e fa          	endbr64 
    13a4:	31 ed                	xor    %ebp,%ebp
    13a6:	49 89 d1             	mov    %rdx,%r9
    13a9:	5e                   	pop    %rsi
    13aa:	48 89 e2             	mov    %rsp,%rdx
    13ad:	48 83 e4 f0          	and    $0xfffffffffffffff0,%rsp
    13b1:	50                   	push   %rax
    13b2:	54                   	push   %rsp
    13b3:	45 31 c0             	xor    %r8d,%r8d
    13b6:	31 c9                	xor    %ecx,%ecx
    13b8:	48 8d 3d 5b 01 00 00 	lea    0x15b(%rip),%rdi        # 151a <main>
    13bf:	ff 15 13 5c 00 00    	call   *0x5c13(%rip)        # 6fd8 <__libc_start_main@GLIBC_2.34>
    13c5:	f4                   	hlt    
    13c6:	66 2e 0f 1f 84 00 00 	cs nopw 0x0(%rax,%rax,1)
    13cd:	00 00 00 

00000000000013d0 <deregister_tm_clones>:
    13d0:	48 8d 3d 49 5c 00 00 	lea    0x5c49(%rip),%rdi        # 7020 <__TMC_END__>
    13d7:	48 8d 05 42 5c 00 00 	lea    0x5c42(%rip),%rax        # 7020 <__TMC_END__>
    13de:	48 39 f8             	cmp    %rdi,%rax
    13e1:	74 15                	je     13f8 <deregister_tm_clones+0x28>
    13e3:	48 8b 05 f6 5b 00 00 	mov    0x5bf6(%rip),%rax        # 6fe0 <_ITM_deregisterTMCloneTable@Base>
    13ea:	48 85 c0             	test   %rax,%rax
    13ed:	74 09                	je     13f8 <deregister_tm_clones+0x28>
    13ef:	ff e0                	jmp    *%rax
    13f1:	0f 1f 80 00 00 00 00 	nopl   0x0(%rax)
    13f8:	c3                   	ret    
    13f9:	0f 1f 80 00 00 00 00 	nopl   0x0(%rax)

0000000000001400 <register_tm_clones>:
    1400:	48 8d 3d 19 5c 00 00 	lea    0x5c19(%rip),%rdi        # 7020 <__TMC_END__>
    1407:	48 8d 35 12 5c 00 00 	lea    0x5c12(%rip),%rsi        # 7020 <__TMC_END__>
    140e:	48 29 fe             	sub    %rdi,%rsi
    1411:	48 89 f0             	mov    %rsi,%rax
    1414:	48 c1 ee 3f          	shr    $0x3f,%rsi
    1418:	48 c1 f8 03          	sar    $0x3,%rax
    141c:	48 01 c6             	add    %rax,%rsi
    141f:	48 d1 fe             	sar    %rsi
    1422:	74 14                	je     1438 <register_tm_clones+0x38>
    1424:	48 8b 05 c5 5b 00 00 	mov    0x5bc5(%rip),%rax        # 6ff0 <_ITM_registerTMCloneTable@Base>
    142b:	48 85 c0             	test   %rax,%rax
    142e:	74 08                	je     1438 <register_tm_clones+0x38>
    1430:	ff e0                	jmp    *%rax
    1432:	66 0f 1f 44 00 00    	nopw   0x0(%rax,%rax,1)
    1438:	c3                   	ret    
    1439:	0f 1f 80 00 00 00 00 	nopl   0x0(%rax)

0000000000001440 <__do_global_dtors_aux>:
    1440:	f3 0f 1e fa          	endbr64 
    1444:	80 3d d5 5b 00 00 00 	cmpb   $0x0,0x5bd5(%rip)        # 7020 <__TMC_END__>
    144b:	75 2b                	jne    1478 <__do_global_dtors_aux+0x38>
    144d:	55                   	push   %rbp
    144e:	48 83 3d 7a 5b 00 00 	cmpq   $0x0,0x5b7a(%rip)        # 6fd0 <__cxa_finalize@GLIBC_2.2.5>
    1455:	00 
    1456:	48 89 e5             	mov    %rsp,%rbp
    1459:	74 0c                	je     1467 <__do_global_dtors_aux+0x27>
    145b:	48 8b 3d a6 5b 00 00 	mov    0x5ba6(%rip),%rdi        # 7008 <__dso_handle>
    1462:	e8 79 fd ff ff       	call   11e0 <__cxa_finalize@plt>
    1467:	e8 64 ff ff ff       	call   13d0 <deregister_tm_clones>
    146c:	c6 05 ad 5b 00 00 01 	movb   $0x1,0x5bad(%rip)        # 7020 <__TMC_END__>
    1473:	5d                   	pop    %rbp
    1474:	c3                   	ret    
    1475:	0f 1f 00             	nopl   (%rax)
    1478:	c3                   	ret    
    1479:	0f 1f 80 00 00 00 00 	nopl   0x0(%rax)

0000000000001480 <frame_dummy>:
    1480:	f3 0f 1e fa          	endbr64 
    1484:	e9 77 ff ff ff       	jmp    1400 <register_tm_clones>

0000000000001489 <_Z9getTicketPv>:
    1489:	f3 0f 1e fa          	endbr64 
    148d:	55                   	push   %rbp
    148e:	48 89 e5             	mov    %rsp,%rbp
    1491:	48 83 ec 20          	sub    $0x20,%rsp
    1495:	48 89 7d e8          	mov    %rdi,-0x18(%rbp)
    1499:	48 8b 45 e8          	mov    -0x18(%rbp),%rax
    149d:	48 89 45 f0          	mov    %rax,-0x10(%rbp)
    14a1:	48 8b 45 f0          	mov    -0x10(%rbp),%rax
    14a5:	48 89 c7             	mov    %rax,%rdi
    14a8:	e8 83 fd ff ff       	call   1230 <_ZNKSt7__cxx1112basic_stringIcSt11char_traitsIcESaIcEE5c_strEv@plt>
    14ad:	48 89 45 f8          	mov    %rax,-0x8(%rbp)
    14b1:	8b 05 59 5b 00 00    	mov    0x5b59(%rip),%eax        # 7010 <tickets>
    14b7:	85 c0                	test   %eax,%eax
    14b9:	7e 3c                	jle    14f7 <_Z9getTicketPv+0x6e>
    14bb:	bf e8 03 00 00       	mov    $0x3e8,%edi
    14c0:	e8 4b fe ff ff       	call   1310 <usleep@plt>
    14c5:	8b 15 45 5b 00 00    	mov    0x5b45(%rip),%edx        # 7010 <tickets>
    14cb:	48 8b 45 f8          	mov    -0x8(%rbp),%rax
    14cf:	48 89 c6             	mov    %rax,%rsi
    14d2:	48 8d 05 34 2b 00 00 	lea    0x2b34(%rip),%rax        # 400d <_ZStL19piecewise_construct+0x9>
    14d9:	48 89 c7             	mov    %rax,%rdi
    14dc:	b8 00 00 00 00       	mov    $0x0,%eax
    14e1:	e8 0a fd ff ff       	call   11f0 <printf@plt>
    14e6:	8b 05 24 5b 00 00    	mov    0x5b24(%rip),%eax        # 7010 <tickets>
    14ec:	83 e8 01             	sub    $0x1,%eax
    14ef:	89 05 1b 5b 00 00    	mov    %eax,0x5b1b(%rip)        # 7010 <tickets>
    14f5:	eb ba                	jmp    14b1 <_Z9getTicketPv+0x28>
    14f7:	90                   	nop
    14f8:	48 8b 45 f8          	mov    -0x8(%rbp),%rax
    14fc:	48 89 c6             	mov    %rax,%rsi
    14ff:	48 8d 05 21 2b 00 00 	lea    0x2b21(%rip),%rax        # 4027 <_ZStL19piecewise_construct+0x23>
    1506:	48 89 c7             	mov    %rax,%rdi
    1509:	b8 00 00 00 00       	mov    $0x0,%eax
    150e:	e8 dd fc ff ff       	call   11f0 <printf@plt>
    1513:	b8 00 00 00 00       	mov    $0x0,%eax
    1518:	c9                   	leave  
    1519:	c3                   	ret    

000000000000151a <main>:
    151a:	f3 0f 1e fa          	endbr64 
    151e:	55                   	push   %rbp
    151f:	48 89 e5             	mov    %rsp,%rbp
    1522:	41 54                	push   %r12
    1524:	53                   	push   %rbx
    1525:	48 83 c4 80          	add    $0xffffffffffffff80,%rsp
    1529:	64 48 8b 04 25 28 00 	mov    %fs:0x28,%rax
    1530:	00 00 
    1532:	48 89 45 e8          	mov    %rax,-0x18(%rbp)
    1536:	31 c0                	xor    %eax,%eax
    1538:	48 8d 45 b0          	lea    -0x50(%rbp),%rax
    153c:	48 89 c7             	mov    %rax,%rdi
    153f:	e8 c0 04 00 00       	call   1a04 <_ZNSt6vectorImSaImEEC1Ev>
    1544:	48 8d 45 d0          	lea    -0x30(%rbp),%rax
    1548:	48 89 c7             	mov    %rax,%rdi
    154b:	e8 14 05 00 00       	call   1a64 <_ZNSt6vectorIP10ThreadDataSaIS1_EEC1Ev>
    1550:	c7 85 7c ff ff ff 01 	movl   $0x1,-0x84(%rbp)
    1557:	00 00 00 
    155a:	e9 87 00 00 00       	jmp    15e6 <main+0xcc>
    155f:	bf 20 00 00 00       	mov    $0x20,%edi
    1564:	e8 57 fd ff ff       	call   12c0 <_Znwm@plt>
    1569:	48 89 c3             	mov    %rax,%rbx
    156c:	8b 85 7c ff ff ff    	mov    -0x84(%rbp),%eax
    1572:	89 c6                	mov    %eax,%esi
    1574:	48 89 df             	mov    %rbx,%rdi
    1577:	e8 72 03 00 00       	call   18ee <_ZN10ThreadDataC1Ei>
    157c:	48 89 5d 88          	mov    %rbx,-0x78(%rbp)
    1580:	48 8d 55 88          	lea    -0x78(%rbp),%rdx
    1584:	48 8d 45 d0          	lea    -0x30(%rbp),%rax
    1588:	48 89 d6             	mov    %rdx,%rsi
    158b:	48 89 c7             	mov    %rax,%rdi
    158e:	e8 a1 08 00 00       	call   1e34 <_ZNSt6vectorIP10ThreadDataSaIS1_EE9push_backERKS1_>
    1593:	8b 85 7c ff ff ff    	mov    -0x84(%rbp),%eax
    1599:	83 e8 01             	sub    $0x1,%eax
    159c:	48 63 d0             	movslq %eax,%rdx
    159f:	48 8d 45 d0          	lea    -0x30(%rbp),%rax
    15a3:	48 89 d6             	mov    %rdx,%rsi
    15a6:	48 89 c7             	mov    %rax,%rdi
    15a9:	e8 06 09 00 00       	call   1eb4 <_ZNSt6vectorIP10ThreadDataSaIS1_EEixEm>
    15ae:	48 8b 10             	mov    (%rax),%rdx
    15b1:	48 8d 45 80          	lea    -0x80(%rbp),%rax
    15b5:	48 89 d1             	mov    %rdx,%rcx
    15b8:	48 8d 15 ca fe ff ff 	lea    -0x136(%rip),%rdx        # 1489 <_Z9getTicketPv>
    15bf:	be 00 00 00 00       	mov    $0x0,%esi
    15c4:	48 89 c7             	mov    %rax,%rdi
    15c7:	e8 b4 fd ff ff       	call   1380 <pthread_create@plt>
    15cc:	48 8d 55 80          	lea    -0x80(%rbp),%rdx
    15d0:	48 8d 45 b0          	lea    -0x50(%rbp),%rax
    15d4:	48 89 d6             	mov    %rdx,%rsi
    15d7:	48 89 c7             	mov    %rax,%rdi
    15da:	e8 f9 08 00 00       	call   1ed8 <_ZNSt6vectorImSaImEE9push_backERKm>
    15df:	83 85 7c ff ff ff 01 	addl   $0x1,-0x84(%rbp)
    15e6:	83 bd 7c ff ff ff 04 	cmpl   $0x4,-0x84(%rbp)
    15ed:	0f 8e 6c ff ff ff    	jle    155f <main+0x45>
    15f3:	48 8d 45 b0          	lea    -0x50(%rbp),%rax
    15f7:	48 89 45 90          	mov    %rax,-0x70(%rbp)
    15fb:	48 8b 45 90          	mov    -0x70(%rbp),%rax
    15ff:	48 89 c7             	mov    %rax,%rdi
    1602:	e8 51 09 00 00       	call   1f58 <_ZNSt6vectorImSaImEE5beginEv>
    1607:	48 89 45 80          	mov    %rax,-0x80(%rbp)
    160b:	48 8b 45 90          	mov    -0x70(%rbp),%rax
    160f:	48 89 c7             	mov    %rax,%rdi
    1612:	e8 8d 09 00 00       	call   1fa4 <_ZNSt6vectorImSaImEE3endEv>
    1617:	48 89 45 88          	mov    %rax,-0x78(%rbp)
    161b:	eb 30                	jmp    164d <main+0x133>
    161d:	48 8d 45 80          	lea    -0x80(%rbp),%rax
    1621:	48 89 c7             	mov    %rax,%rdi
    1624:	e8 2f 0a 00 00       	call   2058 <_ZNK9__gnu_cxx17__normal_iteratorIPmSt6vectorImSaImEEEdeEv>
    1629:	48 8b 00             	mov    (%rax),%rax
    162c:	48 89 45 a8          	mov    %rax,-0x58(%rbp)
    1630:	48 8b 45 a8          	mov    -0x58(%rbp),%rax
    1634:	be 00 00 00 00       	mov    $0x0,%esi
    1639:	48 89 c7             	mov    %rax,%rdi
    163c:	e8 5f fc ff ff       	call   12a0 <pthread_join@plt>
    1641:	48 8d 45 80          	lea    -0x80(%rbp),%rax
    1645:	48 89 c7             	mov    %rax,%rdi
    1648:	e8 e7 09 00 00       	call   2034 <_ZN9__gnu_cxx17__normal_iteratorIPmSt6vectorImSaImEEEppEv>
    164d:	48 8d 55 88          	lea    -0x78(%rbp),%rdx
    1651:	48 8d 45 80          	lea    -0x80(%rbp),%rax
    1655:	48 89 d6             	mov    %rdx,%rsi
    1658:	48 89 c7             	mov    %rax,%rdi
    165b:	e8 94 09 00 00       	call   1ff4 <_ZN9__gnu_cxxneIPmSt6vectorImSaImEEEEbRKNS_17__normal_iteratorIT_T0_EESA_>
    1660:	84 c0                	test   %al,%al
    1662:	75 b9                	jne    161d <main+0x103>
    1664:	48 8d 45 d0          	lea    -0x30(%rbp),%rax
    1668:	48 89 45 98          	mov    %rax,-0x68(%rbp)
    166c:	48 8b 45 98          	mov    -0x68(%rbp),%rax
    1670:	48 89 c7             	mov    %rax,%rdi
    1673:	e8 f6 09 00 00       	call   206e <_ZNSt6vectorIP10ThreadDataSaIS1_EE5beginEv>
    1678:	48 89 45 80          	mov    %rax,-0x80(%rbp)
    167c:	48 8b 45 98          	mov    -0x68(%rbp),%rax
    1680:	48 89 c7             	mov    %rax,%rdi
    1683:	e8 32 0a 00 00       	call   20ba <_ZNSt6vectorIP10ThreadDataSaIS1_EE3endEv>
    1688:	48 89 45 88          	mov    %rax,-0x78(%rbp)
    168c:	eb 38                	jmp    16c6 <main+0x1ac>
    168e:	48 8d 45 80          	lea    -0x80(%rbp),%rax
    1692:	48 89 c7             	mov    %rax,%rdi
    1695:	e8 d4 0a 00 00       	call   216e <_ZNK9__gnu_cxx17__normal_iteratorIPP10ThreadDataSt6vectorIS2_SaIS2_EEEdeEv>
    169a:	48 8b 00             	mov    (%rax),%rax
    169d:	48 89 45 a0          	mov    %rax,-0x60(%rbp)
    16a1:	48 8b 5d a0          	mov    -0x60(%rbp),%rbx
    16a5:	48 85 db             	test   %rbx,%rbx
    16a8:	74 10                	je     16ba <main+0x1a0>
    16aa:	48 89 df             	mov    %rbx,%rdi
    16ad:	e8 d2 03 00 00       	call   1a84 <_ZN10ThreadDataD1Ev>
    16b2:	48 89 df             	mov    %rbx,%rdi
    16b5:	e8 f6 fb ff ff       	call   12b0 <_ZdlPv@plt>
    16ba:	48 8d 45 80          	lea    -0x80(%rbp),%rax
    16be:	48 89 c7             	mov    %rax,%rdi
    16c1:	e8 84 0a 00 00       	call   214a <_ZN9__gnu_cxx17__normal_iteratorIPP10ThreadDataSt6vectorIS2_SaIS2_EEEppEv>
    16c6:	48 8d 55 88          	lea    -0x78(%rbp),%rdx
    16ca:	48 8d 45 80          	lea    -0x80(%rbp),%rax
    16ce:	48 89 d6             	mov    %rdx,%rsi
    16d1:	48 89 c7             	mov    %rax,%rdi
    16d4:	e8 31 0a 00 00       	call   210a <_ZN9__gnu_cxxneIPP10ThreadDataSt6vectorIS2_SaIS2_EEEEbRKNS_17__normal_iteratorIT_T0_EESC_>
    16d9:	84 c0                	test   %al,%al
    16db:	75 b1                	jne    168e <main+0x174>
    16dd:	bb 00 00 00 00       	mov    $0x0,%ebx
    16e2:	48 8d 45 d0          	lea    -0x30(%rbp),%rax
    16e6:	48 89 c7             	mov    %rax,%rdi
    16e9:	e8 fe 06 00 00       	call   1dec <_ZNSt6vectorIP10ThreadDataSaIS1_EED1Ev>
    16ee:	48 8d 45 b0          	lea    -0x50(%rbp),%rax
    16f2:	48 89 c7             	mov    %rax,%rdi
    16f5:	e8 0c 06 00 00       	call   1d06 <_ZNSt6vectorImSaImEED1Ev>
    16fa:	89 d8                	mov    %ebx,%eax
    16fc:	48 8b 55 e8          	mov    -0x18(%rbp),%rdx
    1700:	64 48 2b 14 25 28 00 	sub    %fs:0x28,%rdx
    1707:	00 00 
    1709:	74 45                	je     1750 <main+0x236>
    170b:	eb 3e                	jmp    174b <main+0x231>
    170d:	f3 0f 1e fa          	endbr64 
    1711:	49 89 c4             	mov    %rax,%r12
    1714:	48 89 df             	mov    %rbx,%rdi
    1717:	e8 94 fb ff ff       	call   12b0 <_ZdlPv@plt>
    171c:	4c 89 e3             	mov    %r12,%rbx
    171f:	eb 07                	jmp    1728 <main+0x20e>
    1721:	f3 0f 1e fa          	endbr64 
    1725:	48 89 c3             	mov    %rax,%rbx
    1728:	48 8d 45 d0          	lea    -0x30(%rbp),%rax
    172c:	48 89 c7             	mov    %rax,%rdi
    172f:	e8 b8 06 00 00       	call   1dec <_ZNSt6vectorIP10ThreadDataSaIS1_EED1Ev>
    1734:	48 8d 45 b0          	lea    -0x50(%rbp),%rax
    1738:	48 89 c7             	mov    %rax,%rdi
    173b:	e8 c6 05 00 00       	call   1d06 <_ZNSt6vectorImSaImEED1Ev>
    1740:	48 89 d8             	mov    %rbx,%rax
    1743:	48 89 c7             	mov    %rax,%rdi
    1746:	e8 15 fc ff ff       	call   1360 <_Unwind_Resume@plt>
    174b:	e8 90 fb ff ff       	call   12e0 <__stack_chk_fail@plt>
    1750:	48 83 ec 80          	sub    $0xffffffffffffff80,%rsp
    1754:	5b                   	pop    %rbx
    1755:	41 5c                	pop    %r12
    1757:	5d                   	pop    %rbp
    1758:	c3                   	ret    

0000000000001759 <_Z41__static_initialization_and_destruction_0ii>:
    1759:	f3 0f 1e fa          	endbr64 
    175d:	55                   	push   %rbp
    175e:	48 89 e5             	mov    %rsp,%rbp
    1761:	48 83 ec 10          	sub    $0x10,%rsp
    1765:	89 7d fc             	mov    %edi,-0x4(%rbp)
    1768:	89 75 f8             	mov    %esi,-0x8(%rbp)
    176b:	83 7d fc 01          	cmpl   $0x1,-0x4(%rbp)
    176f:	75 3b                	jne    17ac <_Z41__static_initialization_and_destruction_0ii+0x53>
    1771:	81 7d f8 ff ff 00 00 	cmpl   $0xffff,-0x8(%rbp)
    1778:	75 32                	jne    17ac <_Z41__static_initialization_and_destruction_0ii+0x53>
    177a:	48 8d 05 a0 58 00 00 	lea    0x58a0(%rip),%rax        # 7021 <_ZStL8__ioinit>
    1781:	48 89 c7             	mov    %rax,%rdi
    1784:	e8 a7 fb ff ff       	call   1330 <_ZNSt8ios_base4InitC1Ev@plt>
    1789:	48 8d 05 78 58 00 00 	lea    0x5878(%rip),%rax        # 7008 <__dso_handle>
    1790:	48 89 c2             	mov    %rax,%rdx
    1793:	48 8d 05 87 58 00 00 	lea    0x5887(%rip),%rax        # 7021 <_ZStL8__ioinit>
    179a:	48 89 c6             	mov    %rax,%rsi
    179d:	48 8b 05 54 58 00 00 	mov    0x5854(%rip),%rax        # 6ff8 <_ZNSt8ios_base4InitD1Ev@GLIBCXX_3.4>
    17a4:	48 89 c7             	mov    %rax,%rdi
    17a7:	e8 e4 fa ff ff       	call   1290 <__cxa_atexit@plt>
    17ac:	90                   	nop
    17ad:	c9                   	leave  
    17ae:	c3                   	ret    

00000000000017af <_GLOBAL__sub_I_tickets>:
    17af:	f3 0f 1e fa          	endbr64 
    17b3:	55                   	push   %rbp
    17b4:	48 89 e5             	mov    %rsp,%rbp
    17b7:	be ff ff 00 00       	mov    $0xffff,%esi
    17bc:	bf 01 00 00 00       	mov    $0x1,%edi
    17c1:	e8 93 ff ff ff       	call   1759 <_Z41__static_initialization_and_destruction_0ii>
    17c6:	5d                   	pop    %rbp
    17c7:	c3                   	ret    

00000000000017c8 <_ZnwmPv>:
    17c8:	f3 0f 1e fa          	endbr64 
    17cc:	55                   	push   %rbp
    17cd:	48 89 e5             	mov    %rsp,%rbp
    17d0:	48 89 7d f8          	mov    %rdi,-0x8(%rbp)
    17d4:	48 89 75 f0          	mov    %rsi,-0x10(%rbp)
    17d8:	48 8b 45 f0          	mov    -0x10(%rbp),%rax
    17dc:	5d                   	pop    %rbp
    17dd:	c3                   	ret    

00000000000017de <_ZNSt7__cxx119to_stringEi>:
    17de:	f3 0f 1e fa          	endbr64 
    17e2:	55                   	push   %rbp
    17e3:	48 89 e5             	mov    %rsp,%rbp
    17e6:	53                   	push   %rbx
    17e7:	48 83 ec 38          	sub    $0x38,%rsp
    17eb:	48 89 7d c8          	mov    %rdi,-0x38(%rbp)
    17ef:	89 75 c4             	mov    %esi,-0x3c(%rbp)
    17f2:	64 48 8b 04 25 28 00 	mov    %fs:0x28,%rax
    17f9:	00 00 
    17fb:	48 89 45 e8          	mov    %rax,-0x18(%rbp)
    17ff:	31 c0                	xor    %eax,%eax
    1801:	8b 45 c4             	mov    -0x3c(%rbp),%eax
    1804:	c1 e8 1f             	shr    $0x1f,%eax
    1807:	88 45 df             	mov    %al,-0x21(%rbp)
    180a:	80 7d df 00          	cmpb   $0x0,-0x21(%rbp)
    180e:	74 07                	je     1817 <_ZNSt7__cxx119to_stringEi+0x39>
    1810:	8b 45 c4             	mov    -0x3c(%rbp),%eax
    1813:	f7 d8                	neg    %eax
    1815:	eb 03                	jmp    181a <_ZNSt7__cxx119to_stringEi+0x3c>
    1817:	8b 45 c4             	mov    -0x3c(%rbp),%eax
    181a:	89 45 e0             	mov    %eax,-0x20(%rbp)
    181d:	8b 45 e0             	mov    -0x20(%rbp),%eax
    1820:	be 0a 00 00 00       	mov    $0xa,%esi
    1825:	89 c7                	mov    %eax,%edi
    1827:	e8 77 02 00 00       	call   1aa3 <_ZNSt8__detail14__to_chars_lenIjEEjT_i>
    182c:	89 45 e4             	mov    %eax,-0x1c(%rbp)
    182f:	48 8d 45 de          	lea    -0x22(%rbp),%rax
    1833:	48 89 c7             	mov    %rax,%rdi
    1836:	e8 35 fb ff ff       	call   1370 <_ZNSaIcEC1Ev@plt>
    183b:	0f b6 55 df          	movzbl -0x21(%rbp),%edx
    183f:	8b 45 e4             	mov    -0x1c(%rbp),%eax
    1842:	01 d0                	add    %edx,%eax
    1844:	89 c6                	mov    %eax,%esi
    1846:	48 8d 55 de          	lea    -0x22(%rbp),%rdx
    184a:	48 8b 45 c8          	mov    -0x38(%rbp),%rax
    184e:	48 89 d1             	mov    %rdx,%rcx
    1851:	ba 2d 00 00 00       	mov    $0x2d,%edx
    1856:	48 89 c7             	mov    %rax,%rdi
    1859:	e8 12 fa ff ff       	call   1270 <_ZNSt7__cxx1112basic_stringIcSt11char_traitsIcESaIcEEC1EmcRKS3_@plt>
    185e:	48 8d 45 de          	lea    -0x22(%rbp),%rax
    1862:	48 89 c7             	mov    %rax,%rdi
    1865:	e8 66 fa ff ff       	call   12d0 <_ZNSaIcED1Ev@plt>
    186a:	0f b6 55 df          	movzbl -0x21(%rbp),%edx
    186e:	48 8b 45 c8          	mov    -0x38(%rbp),%rax
    1872:	48 89 d6             	mov    %rdx,%rsi
    1875:	48 89 c7             	mov    %rax,%rdi
    1878:	e8 13 fb ff ff       	call   1390 <_ZNSt7__cxx1112basic_stringIcSt11char_traitsIcESaIcEEixEm@plt>
    187d:	48 89 c1             	mov    %rax,%rcx
    1880:	8b 55 e0             	mov    -0x20(%rbp),%edx
    1883:	8b 45 e4             	mov    -0x1c(%rbp),%eax
    1886:	89 c6                	mov    %eax,%esi
    1888:	48 89 cf             	mov    %rcx,%rdi
    188b:	e8 9f 02 00 00       	call   1b2f <_ZNSt8__detail18__to_chars_10_implIjEEvPcjT_>
    1890:	90                   	nop
    1891:	48 8b 45 e8          	mov    -0x18(%rbp),%rax
    1895:	64 48 2b 04 25 28 00 	sub    %fs:0x28,%rax
    189c:	00 00 
    189e:	74 43                	je     18e3 <_ZNSt7__cxx119to_stringEi+0x105>
    18a0:	eb 3c                	jmp    18de <_ZNSt7__cxx119to_stringEi+0x100>
    18a2:	f3 0f 1e fa          	endbr64 
    18a6:	48 89 c3             	mov    %rax,%rbx
    18a9:	48 8d 45 de          	lea    -0x22(%rbp),%rax
    18ad:	48 89 c7             	mov    %rax,%rdi
    18b0:	e8 1b fa ff ff       	call   12d0 <_ZNSaIcED1Ev@plt>
    18b5:	48 89 d8             	mov    %rbx,%rax
    18b8:	48 89 c7             	mov    %rax,%rdi
    18bb:	e8 a0 fa ff ff       	call   1360 <_Unwind_Resume@plt>
    18c0:	f3 0f 1e fa          	endbr64 
    18c4:	48 89 c3             	mov    %rax,%rbx
    18c7:	48 8b 45 c8          	mov    -0x38(%rbp),%rax
    18cb:	48 89 c7             	mov    %rax,%rdi
    18ce:	e8 8d f9 ff ff       	call   1260 <_ZNSt7__cxx1112basic_stringIcSt11char_traitsIcESaIcEED1Ev@plt>
    18d3:	48 89 d8             	mov    %rbx,%rax
    18d6:	48 89 c7             	mov    %rax,%rdi
    18d9:	e8 82 fa ff ff       	call   1360 <_Unwind_Resume@plt>
    18de:	e8 fd f9 ff ff       	call   12e0 <__stack_chk_fail@plt>
    18e3:	48 8b 45 c8          	mov    -0x38(%rbp),%rax
    18e7:	48 8b 5d f8          	mov    -0x8(%rbp),%rbx
    18eb:	c9                   	leave  
    18ec:	c3                   	ret    
    18ed:	90                   	nop

00000000000018ee <_ZN10ThreadDataC1Ei>:
    18ee:	f3 0f 1e fa          	endbr64 
    18f2:	55                   	push   %rbp
    18f3:	48 89 e5             	mov    %rsp,%rbp
    18f6:	53                   	push   %rbx
    18f7:	48 83 ec 68          	sub    $0x68,%rsp
    18fb:	48 89 7d 98          	mov    %rdi,-0x68(%rbp)
    18ff:	89 75 94             	mov    %esi,-0x6c(%rbp)
    1902:	64 48 8b 04 25 28 00 	mov    %fs:0x28,%rax
    1909:	00 00 
    190b:	48 89 45 e8          	mov    %rax,-0x18(%rbp)
    190f:	31 c0                	xor    %eax,%eax
    1911:	48 8b 45 98          	mov    -0x68(%rbp),%rax
    1915:	48 89 c7             	mov    %rax,%rdi
    1918:	e8 e3 f9 ff ff       	call   1300 <_ZNSt7__cxx1112basic_stringIcSt11char_traitsIcESaIcEEC1Ev@plt>
    191d:	48 8d 45 c0          	lea    -0x40(%rbp),%rax
    1921:	8b 55 94             	mov    -0x6c(%rbp),%edx
    1924:	89 d6                	mov    %edx,%esi
    1926:	48 89 c7             	mov    %rax,%rdi
    1929:	e8 b0 fe ff ff       	call   17de <_ZNSt7__cxx119to_stringEi>
    192e:	48 8d 45 a0          	lea    -0x60(%rbp),%rax
    1932:	48 8d 55 c0          	lea    -0x40(%rbp),%rdx
    1936:	48 8d 0d c8 26 00 00 	lea    0x26c8(%rip),%rcx        # 4005 <_ZStL19piecewise_construct+0x1>
    193d:	48 89 ce             	mov    %rcx,%rsi
    1940:	48 89 c7             	mov    %rax,%rdi
    1943:	e8 d3 02 00 00       	call   1c1b <_ZStplIcSt11char_traitsIcESaIcEENSt7__cxx1112basic_stringIT_T0_T1_EEPKS5_OS8_>
    1948:	48 8b 45 98          	mov    -0x68(%rbp),%rax
    194c:	48 8d 55 a0          	lea    -0x60(%rbp),%rdx
    1950:	48 89 d6             	mov    %rdx,%rsi
    1953:	48 89 c7             	mov    %rax,%rdi
    1956:	e8 95 f9 ff ff       	call   12f0 <_ZNSt7__cxx1112basic_stringIcSt11char_traitsIcESaIcEEaSEOS4_@plt>
    195b:	48 8d 45 a0          	lea    -0x60(%rbp),%rax
    195f:	48 89 c7             	mov    %rax,%rdi
    1962:	e8 f9 f8 ff ff       	call   1260 <_ZNSt7__cxx1112basic_stringIcSt11char_traitsIcESaIcEED1Ev@plt>
    1967:	48 8d 45 c0          	lea    -0x40(%rbp),%rax
    196b:	48 89 c7             	mov    %rax,%rdi
    196e:	e8 ed f8 ff ff       	call   1260 <_ZNSt7__cxx1112basic_stringIcSt11char_traitsIcESaIcEED1Ev@plt>
    1973:	90                   	nop
    1974:	48 8b 45 e8          	mov    -0x18(%rbp),%rax
    1978:	64 48 2b 04 25 28 00 	sub    %fs:0x28,%rax
    197f:	00 00 
    1981:	74 3a                	je     19bd <_ZN10ThreadDataC1Ei+0xcf>
    1983:	eb 33                	jmp    19b8 <_ZN10ThreadDataC1Ei+0xca>
    1985:	f3 0f 1e fa          	endbr64 
    1989:	48 89 c3             	mov    %rax,%rbx
    198c:	48 8d 45 c0          	lea    -0x40(%rbp),%rax
    1990:	48 89 c7             	mov    %rax,%rdi
    1993:	e8 c8 f8 ff ff       	call   1260 <_ZNSt7__cxx1112basic_stringIcSt11char_traitsIcESaIcEED1Ev@plt>
    1998:	eb 07                	jmp    19a1 <_ZN10ThreadDataC1Ei+0xb3>
    199a:	f3 0f 1e fa          	endbr64 
    199e:	48 89 c3             	mov    %rax,%rbx
    19a1:	48 8b 45 98          	mov    -0x68(%rbp),%rax
    19a5:	48 89 c7             	mov    %rax,%rdi
    19a8:	e8 b3 f8 ff ff       	call   1260 <_ZNSt7__cxx1112basic_stringIcSt11char_traitsIcESaIcEED1Ev@plt>
    19ad:	48 89 d8             	mov    %rbx,%rax
    19b0:	48 89 c7             	mov    %rax,%rdi
    19b3:	e8 a8 f9 ff ff       	call   1360 <_Unwind_Resume@plt>
    19b8:	e8 23 f9 ff ff       	call   12e0 <__stack_chk_fail@plt>
    19bd:	48 8b 5d f8          	mov    -0x8(%rbp),%rbx
    19c1:	c9                   	leave  
    19c2:	c3                   	ret    
    19c3:	90                   	nop

00000000000019c4 <_ZNSt12_Vector_baseImSaImEE12_Vector_implD1Ev>:
    19c4:	f3 0f 1e fa          	endbr64 
    19c8:	55                   	push   %rbp
    19c9:	48 89 e5             	mov    %rsp,%rbp
    19cc:	48 83 ec 10          	sub    $0x10,%rsp
    19d0:	48 89 7d f8          	mov    %rdi,-0x8(%rbp)
    19d4:	48 8b 45 f8          	mov    -0x8(%rbp),%rax
    19d8:	48 89 c7             	mov    %rax,%rdi
    19db:	e8 b4 02 00 00       	call   1c94 <_ZNSaImED1Ev>
    19e0:	90                   	nop
    19e1:	c9                   	leave  
    19e2:	c3                   	ret    
    19e3:	90                   	nop

00000000000019e4 <_ZNSt12_Vector_baseImSaImEEC1Ev>:
    19e4:	f3 0f 1e fa          	endbr64 
    19e8:	55                   	push   %rbp
    19e9:	48 89 e5             	mov    %rsp,%rbp
    19ec:	48 83 ec 10          	sub    $0x10,%rsp
    19f0:	48 89 7d f8          	mov    %rdi,-0x8(%rbp)
    19f4:	48 8b 45 f8          	mov    -0x8(%rbp),%rax
    19f8:	48 89 c7             	mov    %rax,%rdi
    19fb:	e8 68 02 00 00       	call   1c68 <_ZNSt12_Vector_baseImSaImEE12_Vector_implC1Ev>
    1a00:	90                   	nop
    1a01:	c9                   	leave  
    1a02:	c3                   	ret    
    1a03:	90                   	nop

0000000000001a04 <_ZNSt6vectorImSaImEEC1Ev>:
    1a04:	f3 0f 1e fa          	endbr64 
    1a08:	55                   	push   %rbp
    1a09:	48 89 e5             	mov    %rsp,%rbp
    1a0c:	48 83 ec 10          	sub    $0x10,%rsp
    1a10:	48 89 7d f8          	mov    %rdi,-0x8(%rbp)
    1a14:	48 8b 45 f8          	mov    -0x8(%rbp),%rax
    1a18:	48 89 c7             	mov    %rax,%rdi
    1a1b:	e8 c4 ff ff ff       	call   19e4 <_ZNSt12_Vector_baseImSaImEEC1Ev>
    1a20:	90                   	nop
    1a21:	c9                   	leave  
    1a22:	c3                   	ret    
    1a23:	90                   	nop

0000000000001a24 <_ZNSt12_Vector_baseIP10ThreadDataSaIS1_EE12_Vector_implD1Ev>:
    1a24:	f3 0f 1e fa          	endbr64 
    1a28:	55                   	push   %rbp
    1a29:	48 89 e5             	mov    %rsp,%rbp
    1a2c:	48 83 ec 10          	sub    $0x10,%rsp
    1a30:	48 89 7d f8          	mov    %rdi,-0x8(%rbp)
    1a34:	48 8b 45 f8          	mov    -0x8(%rbp),%rax
    1a38:	48 89 c7             	mov    %rax,%rdi
    1a3b:	e8 3a 03 00 00       	call   1d7a <_ZNSaIP10ThreadDataED1Ev>
    1a40:	90                   	nop
    1a41:	c9                   	leave  
    1a42:	c3                   	ret    
    1a43:	90                   	nop

0000000000001a44 <_ZNSt12_Vector_baseIP10ThreadDataSaIS1_EEC1Ev>:
    1a44:	f3 0f 1e fa          	endbr64 
    1a48:	55                   	push   %rbp
    1a49:	48 89 e5             	mov    %rsp,%rbp
    1a4c:	48 83 ec 10          	sub    $0x10,%rsp
    1a50:	48 89 7d f8          	mov    %rdi,-0x8(%rbp)
    1a54:	48 8b 45 f8          	mov    -0x8(%rbp),%rax
    1a58:	48 89 c7             	mov    %rax,%rdi
    1a5b:	e8 ee 02 00 00       	call   1d4e <_ZNSt12_Vector_baseIP10ThreadDataSaIS1_EE12_Vector_implC1Ev>
    1a60:	90                   	nop
    1a61:	c9                   	leave  
    1a62:	c3                   	ret    
    1a63:	90                   	nop

0000000000001a64 <_ZNSt6vectorIP10ThreadDataSaIS1_EEC1Ev>:
    1a64:	f3 0f 1e fa          	endbr64 
    1a68:	55                   	push   %rbp
    1a69:	48 89 e5             	mov    %rsp,%rbp
    1a6c:	48 83 ec 10          	sub    $0x10,%rsp
    1a70:	48 89 7d f8          	mov    %rdi,-0x8(%rbp)
    1a74:	48 8b 45 f8          	mov    -0x8(%rbp),%rax
    1a78:	48 89 c7             	mov    %rax,%rdi
    1a7b:	e8 c4 ff ff ff       	call   1a44 <_ZNSt12_Vector_baseIP10ThreadDataSaIS1_EEC1Ev>
    1a80:	90                   	nop
    1a81:	c9                   	leave  
    1a82:	c3                   	ret    
    1a83:	90                   	nop

0000000000001a84 <_ZN10ThreadDataD1Ev>:
    1a84:	f3 0f 1e fa          	endbr64 
    1a88:	55                   	push   %rbp
    1a89:	48 89 e5             	mov    %rsp,%rbp
    1a8c:	48 83 ec 10          	sub    $0x10,%rsp
    1a90:	48 89 7d f8          	mov    %rdi,-0x8(%rbp)
    1a94:	48 8b 45 f8          	mov    -0x8(%rbp),%rax
    1a98:	48 89 c7             	mov    %rax,%rdi
    1a9b:	e8 c0 f7 ff ff       	call   1260 <_ZNSt7__cxx1112basic_stringIcSt11char_traitsIcESaIcEED1Ev@plt>
    1aa0:	90                   	nop
    1aa1:	c9                   	leave  
    1aa2:	c3                   	ret    

0000000000001aa3 <_ZNSt8__detail14__to_chars_lenIjEEjT_i>:
    1aa3:	f3 0f 1e fa          	endbr64 
    1aa7:	55                   	push   %rbp
    1aa8:	48 89 e5             	mov    %rsp,%rbp
    1aab:	89 7d dc             	mov    %edi,-0x24(%rbp)
    1aae:	89 75 d8             	mov    %esi,-0x28(%rbp)
    1ab1:	c7 45 ec 01 00 00 00 	movl   $0x1,-0x14(%rbp)
    1ab8:	8b 45 d8             	mov    -0x28(%rbp),%eax
    1abb:	0f af c0             	imul   %eax,%eax
    1abe:	89 45 f0             	mov    %eax,-0x10(%rbp)
    1ac1:	8b 45 d8             	mov    -0x28(%rbp),%eax
    1ac4:	8b 55 f0             	mov    -0x10(%rbp),%edx
    1ac7:	0f af c2             	imul   %edx,%eax
    1aca:	89 45 f4             	mov    %eax,-0xc(%rbp)
    1acd:	8b 45 d8             	mov    -0x28(%rbp),%eax
    1ad0:	0f af 45 f4          	imul   -0xc(%rbp),%eax
    1ad4:	89 c0                	mov    %eax,%eax
    1ad6:	48 89 45 f8          	mov    %rax,-0x8(%rbp)
    1ada:	8b 45 d8             	mov    -0x28(%rbp),%eax
    1add:	39 45 dc             	cmp    %eax,-0x24(%rbp)
    1ae0:	73 05                	jae    1ae7 <_ZNSt8__detail14__to_chars_lenIjEEjT_i+0x44>
    1ae2:	8b 45 ec             	mov    -0x14(%rbp),%eax
    1ae5:	eb 46                	jmp    1b2d <_ZNSt8__detail14__to_chars_lenIjEEjT_i+0x8a>
    1ae7:	8b 45 dc             	mov    -0x24(%rbp),%eax
    1aea:	3b 45 f0             	cmp    -0x10(%rbp),%eax
    1aed:	73 08                	jae    1af7 <_ZNSt8__detail14__to_chars_lenIjEEjT_i+0x54>
    1aef:	8b 45 ec             	mov    -0x14(%rbp),%eax
    1af2:	83 c0 01             	add    $0x1,%eax
    1af5:	eb 36                	jmp    1b2d <_ZNSt8__detail14__to_chars_lenIjEEjT_i+0x8a>
    1af7:	8b 45 dc             	mov    -0x24(%rbp),%eax
    1afa:	3b 45 f4             	cmp    -0xc(%rbp),%eax
    1afd:	73 08                	jae    1b07 <_ZNSt8__detail14__to_chars_lenIjEEjT_i+0x64>
    1aff:	8b 45 ec             	mov    -0x14(%rbp),%eax
    1b02:	83 c0 02             	add    $0x2,%eax
    1b05:	eb 26                	jmp    1b2d <_ZNSt8__detail14__to_chars_lenIjEEjT_i+0x8a>
    1b07:	8b 45 dc             	mov    -0x24(%rbp),%eax
    1b0a:	48 39 45 f8          	cmp    %rax,-0x8(%rbp)
    1b0e:	76 08                	jbe    1b18 <_ZNSt8__detail14__to_chars_lenIjEEjT_i+0x75>
    1b10:	8b 45 ec             	mov    -0x14(%rbp),%eax
    1b13:	83 c0 03             	add    $0x3,%eax
    1b16:	eb 15                	jmp    1b2d <_ZNSt8__detail14__to_chars_lenIjEEjT_i+0x8a>
    1b18:	8b 45 dc             	mov    -0x24(%rbp),%eax
    1b1b:	ba 00 00 00 00       	mov    $0x0,%edx
    1b20:	48 f7 75 f8          	divq   -0x8(%rbp)
    1b24:	89 45 dc             	mov    %eax,-0x24(%rbp)
    1b27:	83 45 ec 04          	addl   $0x4,-0x14(%rbp)
    1b2b:	eb ad                	jmp    1ada <_ZNSt8__detail14__to_chars_lenIjEEjT_i+0x37>
    1b2d:	5d                   	pop    %rbp
    1b2e:	c3                   	ret    

0000000000001b2f <_ZNSt8__detail18__to_chars_10_implIjEEvPcjT_>:
    1b2f:	f3 0f 1e fa          	endbr64 
    1b33:	55                   	push   %rbp
    1b34:	48 89 e5             	mov    %rsp,%rbp
    1b37:	48 89 7d e8          	mov    %rdi,-0x18(%rbp)
    1b3b:	89 75 e4             	mov    %esi,-0x1c(%rbp)
    1b3e:	89 55 e0             	mov    %edx,-0x20(%rbp)
    1b41:	8b 45 e4             	mov    -0x1c(%rbp),%eax
    1b44:	83 e8 01             	sub    $0x1,%eax
    1b47:	89 45 f4             	mov    %eax,-0xc(%rbp)
    1b4a:	eb 77                	jmp    1bc3 <_ZNSt8__detail18__to_chars_10_implIjEEvPcjT_+0x94>
    1b4c:	8b 55 e0             	mov    -0x20(%rbp),%edx
    1b4f:	89 d0                	mov    %edx,%eax
    1b51:	48 69 c0 1f 85 eb 51 	imul   $0x51eb851f,%rax,%rax
    1b58:	48 c1 e8 20          	shr    $0x20,%rax
    1b5c:	c1 e8 05             	shr    $0x5,%eax
    1b5f:	6b c8 64             	imul   $0x64,%eax,%ecx
    1b62:	89 d0                	mov    %edx,%eax
    1b64:	29 c8                	sub    %ecx,%eax
    1b66:	01 c0                	add    %eax,%eax
    1b68:	89 45 fc             	mov    %eax,-0x4(%rbp)
    1b6b:	8b 45 e0             	mov    -0x20(%rbp),%eax
    1b6e:	89 c0                	mov    %eax,%eax
    1b70:	48 69 c0 1f 85 eb 51 	imul   $0x51eb851f,%rax,%rax
    1b77:	48 c1 e8 20          	shr    $0x20,%rax
    1b7b:	c1 e8 05             	shr    $0x5,%eax
    1b7e:	89 45 e0             	mov    %eax,-0x20(%rbp)
    1b81:	8b 45 fc             	mov    -0x4(%rbp),%eax
    1b84:	8d 48 01             	lea    0x1(%rax),%ecx
    1b87:	8b 55 f4             	mov    -0xc(%rbp),%edx
    1b8a:	48 8b 45 e8          	mov    -0x18(%rbp),%rax
    1b8e:	48 01 c2             	add    %rax,%rdx
    1b91:	89 c9                	mov    %ecx,%ecx
    1b93:	48 8d 05 c6 24 00 00 	lea    0x24c6(%rip),%rax        # 4060 <_ZZNSt8__detail18__to_chars_10_implIjEEvPcjT_E8__digits>
    1b9a:	0f b6 04 01          	movzbl (%rcx,%rax,1),%eax
    1b9e:	88 02                	mov    %al,(%rdx)
    1ba0:	8b 45 f4             	mov    -0xc(%rbp),%eax
    1ba3:	83 e8 01             	sub    $0x1,%eax
    1ba6:	89 c2                	mov    %eax,%edx
    1ba8:	48 8b 45 e8          	mov    -0x18(%rbp),%rax
    1bac:	48 01 c2             	add    %rax,%rdx
    1baf:	8b 45 fc             	mov    -0x4(%rbp),%eax
    1bb2:	48 8d 0d a7 24 00 00 	lea    0x24a7(%rip),%rcx        # 4060 <_ZZNSt8__detail18__to_chars_10_implIjEEvPcjT_E8__digits>
    1bb9:	0f b6 04 08          	movzbl (%rax,%rcx,1),%eax
    1bbd:	88 02                	mov    %al,(%rdx)
    1bbf:	83 6d f4 02          	subl   $0x2,-0xc(%rbp)
    1bc3:	83 7d e0 63          	cmpl   $0x63,-0x20(%rbp)
    1bc7:	77 83                	ja     1b4c <_ZNSt8__detail18__to_chars_10_implIjEEvPcjT_+0x1d>
    1bc9:	83 7d e0 09          	cmpl   $0x9,-0x20(%rbp)
    1bcd:	76 3b                	jbe    1c0a <_ZNSt8__detail18__to_chars_10_implIjEEvPcjT_+0xdb>
    1bcf:	8b 45 e0             	mov    -0x20(%rbp),%eax
    1bd2:	01 c0                	add    %eax,%eax
    1bd4:	89 45 f8             	mov    %eax,-0x8(%rbp)
    1bd7:	8b 45 f8             	mov    -0x8(%rbp),%eax
    1bda:	8d 48 01             	lea    0x1(%rax),%ecx
    1bdd:	48 8b 45 e8          	mov    -0x18(%rbp),%rax
    1be1:	48 8d 50 01          	lea    0x1(%rax),%rdx
    1be5:	89 c9                	mov    %ecx,%ecx
    1be7:	48 8d 05 72 24 00 00 	lea    0x2472(%rip),%rax        # 4060 <_ZZNSt8__detail18__to_chars_10_implIjEEvPcjT_E8__digits>
    1bee:	0f b6 04 01          	movzbl (%rcx,%rax,1),%eax
    1bf2:	88 02                	mov    %al,(%rdx)
    1bf4:	8b 45 f8             	mov    -0x8(%rbp),%eax
    1bf7:	48 8d 15 62 24 00 00 	lea    0x2462(%rip),%rdx        # 4060 <_ZZNSt8__detail18__to_chars_10_implIjEEvPcjT_E8__digits>
    1bfe:	0f b6 14 10          	movzbl (%rax,%rdx,1),%edx
    1c02:	48 8b 45 e8          	mov    -0x18(%rbp),%rax
    1c06:	88 10                	mov    %dl,(%rax)
    1c08:	eb 0e                	jmp    1c18 <_ZNSt8__detail18__to_chars_10_implIjEEvPcjT_+0xe9>
    1c0a:	8b 45 e0             	mov    -0x20(%rbp),%eax
    1c0d:	83 c0 30             	add    $0x30,%eax
    1c10:	89 c2                	mov    %eax,%edx
    1c12:	48 8b 45 e8          	mov    -0x18(%rbp),%rax
    1c16:	88 10                	mov    %dl,(%rax)
    1c18:	90                   	nop
    1c19:	5d                   	pop    %rbp
    1c1a:	c3                   	ret    

0000000000001c1b <_ZStplIcSt11char_traitsIcESaIcEENSt7__cxx1112basic_stringIT_T0_T1_EEPKS5_OS8_>:
    1c1b:	f3 0f 1e fa          	endbr64 
    1c1f:	55                   	push   %rbp
    1c20:	48 89 e5             	mov    %rsp,%rbp
    1c23:	48 83 ec 20          	sub    $0x20,%rsp
    1c27:	48 89 7d f8          	mov    %rdi,-0x8(%rbp)
    1c2b:	48 89 75 f0          	mov    %rsi,-0x10(%rbp)
    1c2f:	48 89 55 e8          	mov    %rdx,-0x18(%rbp)
    1c33:	48 8b 55 f0          	mov    -0x10(%rbp),%rdx
    1c37:	48 8b 45 e8          	mov    -0x18(%rbp),%rax
    1c3b:	be 00 00 00 00       	mov    $0x0,%esi
    1c40:	48 89 c7             	mov    %rax,%rdi
    1c43:	e8 b8 f5 ff ff       	call   1200 <_ZNSt7__cxx1112basic_stringIcSt11char_traitsIcESaIcEE6insertEmPKc@plt>
    1c48:	48 89 c7             	mov    %rax,%rdi
    1c4b:	e8 33 05 00 00       	call   2183 <_ZSt4moveIRNSt7__cxx1112basic_stringIcSt11char_traitsIcESaIcEEEEONSt16remove_referenceIT_E4typeEOS8_>
    1c50:	48 89 c2             	mov    %rax,%rdx
    1c53:	48 8b 45 f8          	mov    -0x8(%rbp),%rax
    1c57:	48 89 d6             	mov    %rdx,%rsi
    1c5a:	48 89 c7             	mov    %rax,%rdi
    1c5d:	e8 ee f5 ff ff       	call   1250 <_ZNSt7__cxx1112basic_stringIcSt11char_traitsIcESaIcEEC1EOS4_@plt>
    1c62:	48 8b 45 f8          	mov    -0x8(%rbp),%rax
    1c66:	c9                   	leave  
    1c67:	c3                   	ret    

0000000000001c68 <_ZNSt12_Vector_baseImSaImEE12_Vector_implC1Ev>:
    1c68:	f3 0f 1e fa          	endbr64 
    1c6c:	55                   	push   %rbp
    1c6d:	48 89 e5             	mov    %rsp,%rbp
    1c70:	48 83 ec 10          	sub    $0x10,%rsp
    1c74:	48 89 7d f8          	mov    %rdi,-0x8(%rbp)
    1c78:	48 8b 45 f8          	mov    -0x8(%rbp),%rax
    1c7c:	48 89 c7             	mov    %rax,%rdi
    1c7f:	e8 12 05 00 00       	call   2196 <_ZNSaImEC1Ev>
    1c84:	48 8b 45 f8          	mov    -0x8(%rbp),%rax
    1c88:	48 89 c7             	mov    %rax,%rdi
    1c8b:	e8 26 05 00 00       	call   21b6 <_ZNSt12_Vector_baseImSaImEE17_Vector_impl_dataC1Ev>
    1c90:	90                   	nop
    1c91:	c9                   	leave  
    1c92:	c3                   	ret    
    1c93:	90                   	nop

0000000000001c94 <_ZNSaImED1Ev>:
    1c94:	f3 0f 1e fa          	endbr64 
    1c98:	55                   	push   %rbp
    1c99:	48 89 e5             	mov    %rsp,%rbp
    1c9c:	48 83 ec 10          	sub    $0x10,%rsp
    1ca0:	48 89 7d f8          	mov    %rdi,-0x8(%rbp)
    1ca4:	48 8b 45 f8          	mov    -0x8(%rbp),%rax
    1ca8:	48 89 c7             	mov    %rax,%rdi
    1cab:	e8 38 05 00 00       	call   21e8 <_ZN9__gnu_cxx13new_allocatorImED1Ev>
    1cb0:	90                   	nop
    1cb1:	c9                   	leave  
    1cb2:	c3                   	ret    
    1cb3:	90                   	nop

0000000000001cb4 <_ZNSt12_Vector_baseImSaImEED1Ev>:
    1cb4:	f3 0f 1e fa          	endbr64 
    1cb8:	55                   	push   %rbp
    1cb9:	48 89 e5             	mov    %rsp,%rbp
    1cbc:	48 83 ec 10          	sub    $0x10,%rsp
    1cc0:	48 89 7d f8          	mov    %rdi,-0x8(%rbp)
    1cc4:	48 8b 45 f8          	mov    -0x8(%rbp),%rax
    1cc8:	48 8b 50 10          	mov    0x10(%rax),%rdx
    1ccc:	48 8b 45 f8          	mov    -0x8(%rbp),%rax
    1cd0:	48 8b 08             	mov    (%rax),%rcx
    1cd3:	48 89 d0             	mov    %rdx,%rax
    1cd6:	48 29 c8             	sub    %rcx,%rax
    1cd9:	48 c1 f8 03          	sar    $0x3,%rax
    1cdd:	48 89 c2             	mov    %rax,%rdx
    1ce0:	48 8b 45 f8          	mov    -0x8(%rbp),%rax
    1ce4:	48 8b 08             	mov    (%rax),%rcx
    1ce7:	48 8b 45 f8          	mov    -0x8(%rbp),%rax
    1ceb:	48 89 ce             	mov    %rcx,%rsi
    1cee:	48 89 c7             	mov    %rax,%rdi
    1cf1:	e8 02 05 00 00       	call   21f8 <_ZNSt12_Vector_baseImSaImEE13_M_deallocateEPmm>
    1cf6:	48 8b 45 f8          	mov    -0x8(%rbp),%rax
    1cfa:	48 89 c7             	mov    %rax,%rdi
    1cfd:	e8 c2 fc ff ff       	call   19c4 <_ZNSt12_Vector_baseImSaImEE12_Vector_implD1Ev>
    1d02:	90                   	nop
    1d03:	c9                   	leave  
    1d04:	c3                   	ret    
    1d05:	90                   	nop

0000000000001d06 <_ZNSt6vectorImSaImEED1Ev>:
    1d06:	f3 0f 1e fa          	endbr64 
    1d0a:	55                   	push   %rbp
    1d0b:	48 89 e5             	mov    %rsp,%rbp
    1d0e:	48 83 ec 10          	sub    $0x10,%rsp
    1d12:	48 89 7d f8          	mov    %rdi,-0x8(%rbp)
    1d16:	48 8b 45 f8          	mov    -0x8(%rbp),%rax
    1d1a:	48 89 c7             	mov    %rax,%rdi
    1d1d:	e8 10 05 00 00       	call   2232 <_ZNSt12_Vector_baseImSaImEE19_M_get_Tp_allocatorEv>
    1d22:	48 89 c2             	mov    %rax,%rdx
    1d25:	48 8b 45 f8          	mov    -0x8(%rbp),%rax
    1d29:	48 8b 48 08          	mov    0x8(%rax),%rcx
    1d2d:	48 8b 45 f8          	mov    -0x8(%rbp),%rax
    1d31:	48 8b 00             	mov    (%rax),%rax
    1d34:	48 89 ce             	mov    %rcx,%rsi
    1d37:	48 89 c7             	mov    %rax,%rdi
    1d3a:	e8 05 05 00 00       	call   2244 <_ZSt8_DestroyIPmmEvT_S1_RSaIT0_E>
    1d3f:	48 8b 45 f8          	mov    -0x8(%rbp),%rax
    1d43:	48 89 c7             	mov    %rax,%rdi
    1d46:	e8 69 ff ff ff       	call   1cb4 <_ZNSt12_Vector_baseImSaImEED1Ev>
    1d4b:	90                   	nop
    1d4c:	c9                   	leave  
    1d4d:	c3                   	ret    

0000000000001d4e <_ZNSt12_Vector_baseIP10ThreadDataSaIS1_EE12_Vector_implC1Ev>:
    1d4e:	f3 0f 1e fa          	endbr64 
    1d52:	55                   	push   %rbp
    1d53:	48 89 e5             	mov    %rsp,%rbp
    1d56:	48 83 ec 10          	sub    $0x10,%rsp
    1d5a:	48 89 7d f8          	mov    %rdi,-0x8(%rbp)
    1d5e:	48 8b 45 f8          	mov    -0x8(%rbp),%rax
    1d62:	48 89 c7             	mov    %rax,%rdi
    1d65:	e8 08 05 00 00       	call   2272 <_ZNSaIP10ThreadDataEC1Ev>
    1d6a:	48 8b 45 f8          	mov    -0x8(%rbp),%rax
    1d6e:	48 89 c7             	mov    %rax,%rdi
    1d71:	e8 1c 05 00 00       	call   2292 <_ZNSt12_Vector_baseIP10ThreadDataSaIS1_EE17_Vector_impl_dataC1Ev>
    1d76:	90                   	nop
    1d77:	c9                   	leave  
    1d78:	c3                   	ret    
    1d79:	90                   	nop

0000000000001d7a <_ZNSaIP10ThreadDataED1Ev>:
    1d7a:	f3 0f 1e fa          	endbr64 
    1d7e:	55                   	push   %rbp
    1d7f:	48 89 e5             	mov    %rsp,%rbp
    1d82:	48 83 ec 10          	sub    $0x10,%rsp
    1d86:	48 89 7d f8          	mov    %rdi,-0x8(%rbp)
    1d8a:	48 8b 45 f8          	mov    -0x8(%rbp),%rax
    1d8e:	48 89 c7             	mov    %rax,%rdi
    1d91:	e8 2e 05 00 00       	call   22c4 <_ZN9__gnu_cxx13new_allocatorIP10ThreadDataED1Ev>
    1d96:	90                   	nop
    1d97:	c9                   	leave  
    1d98:	c3                   	ret    
    1d99:	90                   	nop

0000000000001d9a <_ZNSt12_Vector_baseIP10ThreadDataSaIS1_EED1Ev>:
    1d9a:	f3 0f 1e fa          	endbr64 
    1d9e:	55                   	push   %rbp
    1d9f:	48 89 e5             	mov    %rsp,%rbp
    1da2:	48 83 ec 10          	sub    $0x10,%rsp
    1da6:	48 89 7d f8          	mov    %rdi,-0x8(%rbp)
    1daa:	48 8b 45 f8          	mov    -0x8(%rbp),%rax
    1dae:	48 8b 50 10          	mov    0x10(%rax),%rdx
    1db2:	48 8b 45 f8          	mov    -0x8(%rbp),%rax
    1db6:	48 8b 08             	mov    (%rax),%rcx
    1db9:	48 89 d0             	mov    %rdx,%rax
    1dbc:	48 29 c8             	sub    %rcx,%rax
    1dbf:	48 c1 f8 03          	sar    $0x3,%rax
    1dc3:	48 89 c2             	mov    %rax,%rdx
    1dc6:	48 8b 45 f8          	mov    -0x8(%rbp),%rax
    1dca:	48 8b 08             	mov    (%rax),%rcx
    1dcd:	48 8b 45 f8          	mov    -0x8(%rbp),%rax
    1dd1:	48 89 ce             	mov    %rcx,%rsi
    1dd4:	48 89 c7             	mov    %rax,%rdi
    1dd7:	e8 f8 04 00 00       	call   22d4 <_ZNSt12_Vector_baseIP10ThreadDataSaIS1_EE13_M_deallocateEPS1_m>
    1ddc:	48 8b 45 f8          	mov    -0x8(%rbp),%rax
    1de0:	48 89 c7             	mov    %rax,%rdi
    1de3:	e8 3c fc ff ff       	call   1a24 <_ZNSt12_Vector_baseIP10ThreadDataSaIS1_EE12_Vector_implD1Ev>
    1de8:	90                   	nop
    1de9:	c9                   	leave  
    1dea:	c3                   	ret    
    1deb:	90                   	nop

0000000000001dec <_ZNSt6vectorIP10ThreadDataSaIS1_EED1Ev>:
    1dec:	f3 0f 1e fa          	endbr64 
    1df0:	55                   	push   %rbp
    1df1:	48 89 e5             	mov    %rsp,%rbp
    1df4:	48 83 ec 10          	sub    $0x10,%rsp
    1df8:	48 89 7d f8          	mov    %rdi,-0x8(%rbp)
    1dfc:	48 8b 45 f8          	mov    -0x8(%rbp),%rax
    1e00:	48 89 c7             	mov    %rax,%rdi
    1e03:	e8 06 05 00 00       	call   230e <_ZNSt12_Vector_baseIP10ThreadDataSaIS1_EE19_M_get_Tp_allocatorEv>
    1e08:	48 89 c2             	mov    %rax,%rdx
    1e0b:	48 8b 45 f8          	mov    -0x8(%rbp),%rax
    1e0f:	48 8b 48 08          	mov    0x8(%rax),%rcx
    1e13:	48 8b 45 f8          	mov    -0x8(%rbp),%rax
    1e17:	48 8b 00             	mov    (%rax),%rax
    1e1a:	48 89 ce             	mov    %rcx,%rsi
    1e1d:	48 89 c7             	mov    %rax,%rdi
    1e20:	e8 fb 04 00 00       	call   2320 <_ZSt8_DestroyIPP10ThreadDataS1_EvT_S3_RSaIT0_E>
    1e25:	48 8b 45 f8          	mov    -0x8(%rbp),%rax
    1e29:	48 89 c7             	mov    %rax,%rdi
    1e2c:	e8 69 ff ff ff       	call   1d9a <_ZNSt12_Vector_baseIP10ThreadDataSaIS1_EED1Ev>
    1e31:	90                   	nop
    1e32:	c9                   	leave  
    1e33:	c3                   	ret    

0000000000001e34 <_ZNSt6vectorIP10ThreadDataSaIS1_EE9push_backERKS1_>:
    1e34:	f3 0f 1e fa          	endbr64 
    1e38:	55                   	push   %rbp
    1e39:	48 89 e5             	mov    %rsp,%rbp
    1e3c:	48 83 ec 10          	sub    $0x10,%rsp
    1e40:	48 89 7d f8          	mov    %rdi,-0x8(%rbp)
    1e44:	48 89 75 f0          	mov    %rsi,-0x10(%rbp)
    1e48:	48 8b 45 f8          	mov    -0x8(%rbp),%rax
    1e4c:	48 8b 50 08          	mov    0x8(%rax),%rdx
    1e50:	48 8b 45 f8          	mov    -0x8(%rbp),%rax
    1e54:	48 8b 40 10          	mov    0x10(%rax),%rax
    1e58:	48 39 c2             	cmp    %rax,%rdx
    1e5b:	74 31                	je     1e8e <_ZNSt6vectorIP10ThreadDataSaIS1_EE9push_backERKS1_+0x5a>
    1e5d:	48 8b 45 f8          	mov    -0x8(%rbp),%rax
    1e61:	48 8b 48 08          	mov    0x8(%rax),%rcx
    1e65:	48 8b 45 f8          	mov    -0x8(%rbp),%rax
    1e69:	48 8b 55 f0          	mov    -0x10(%rbp),%rdx
    1e6d:	48 89 ce             	mov    %rcx,%rsi
    1e70:	48 89 c7             	mov    %rax,%rdi
    1e73:	e8 d6 04 00 00       	call   234e <_ZNSt16allocator_traitsISaIP10ThreadDataEE9constructIS1_JRKS1_EEEvRS2_PT_DpOT0_>
    1e78:	48 8b 45 f8          	mov    -0x8(%rbp),%rax
    1e7c:	48 8b 40 08          	mov    0x8(%rax),%rax
    1e80:	48 8d 50 08          	lea    0x8(%rax),%rdx
    1e84:	48 8b 45 f8          	mov    -0x8(%rbp),%rax
    1e88:	48 89 50 08          	mov    %rdx,0x8(%rax)
    1e8c:	eb 22                	jmp    1eb0 <_ZNSt6vectorIP10ThreadDataSaIS1_EE9push_backERKS1_+0x7c>
    1e8e:	48 8b 45 f8          	mov    -0x8(%rbp),%rax
    1e92:	48 89 c7             	mov    %rax,%rdi
    1e95:	e8 20 02 00 00       	call   20ba <_ZNSt6vectorIP10ThreadDataSaIS1_EE3endEv>
    1e9a:	48 89 c1             	mov    %rax,%rcx
    1e9d:	48 8b 55 f0          	mov    -0x10(%rbp),%rdx
    1ea1:	48 8b 45 f8          	mov    -0x8(%rbp),%rax
    1ea5:	48 89 ce             	mov    %rcx,%rsi
    1ea8:	48 89 c7             	mov    %rax,%rdi
    1eab:	e8 20 05 00 00       	call   23d0 <_ZNSt6vectorIP10ThreadDataSaIS1_EE17_M_realloc_insertIJRKS1_EEEvN9__gnu_cxx17__normal_iteratorIPS1_S3_EEDpOT_>
    1eb0:	90                   	nop
    1eb1:	c9                   	leave  
    1eb2:	c3                   	ret    
    1eb3:	90                   	nop

0000000000001eb4 <_ZNSt6vectorIP10ThreadDataSaIS1_EEixEm>:
    1eb4:	f3 0f 1e fa          	endbr64 
    1eb8:	55                   	push   %rbp
    1eb9:	48 89 e5             	mov    %rsp,%rbp
    1ebc:	48 89 7d f8          	mov    %rdi,-0x8(%rbp)
    1ec0:	48 89 75 f0          	mov    %rsi,-0x10(%rbp)
    1ec4:	48 8b 45 f8          	mov    -0x8(%rbp),%rax
    1ec8:	48 8b 10             	mov    (%rax),%rdx
    1ecb:	48 8b 45 f0          	mov    -0x10(%rbp),%rax
    1ecf:	48 c1 e0 03          	shl    $0x3,%rax
    1ed3:	48 01 d0             	add    %rdx,%rax
    1ed6:	5d                   	pop    %rbp
    1ed7:	c3                   	ret    

0000000000001ed8 <_ZNSt6vectorImSaImEE9push_backERKm>:
    1ed8:	f3 0f 1e fa          	endbr64 
    1edc:	55                   	push   %rbp
    1edd:	48 89 e5             	mov    %rsp,%rbp
    1ee0:	48 83 ec 10          	sub    $0x10,%rsp
    1ee4:	48 89 7d f8          	mov    %rdi,-0x8(%rbp)
    1ee8:	48 89 75 f0          	mov    %rsi,-0x10(%rbp)
    1eec:	48 8b 45 f8          	mov    -0x8(%rbp),%rax
    1ef0:	48 8b 50 08          	mov    0x8(%rax),%rdx
    1ef4:	48 8b 45 f8          	mov    -0x8(%rbp),%rax
    1ef8:	48 8b 40 10          	mov    0x10(%rax),%rax
    1efc:	48 39 c2             	cmp    %rax,%rdx
    1eff:	74 31                	je     1f32 <_ZNSt6vectorImSaImEE9push_backERKm+0x5a>
    1f01:	48 8b 45 f8          	mov    -0x8(%rbp),%rax
    1f05:	48 8b 48 08          	mov    0x8(%rax),%rcx
    1f09:	48 8b 45 f8          	mov    -0x8(%rbp),%rax
    1f0d:	48 8b 55 f0          	mov    -0x10(%rbp),%rdx
    1f11:	48 89 ce             	mov    %rcx,%rsi
    1f14:	48 89 c7             	mov    %rax,%rdi
    1f17:	e8 aa 07 00 00       	call   26c6 <_ZNSt16allocator_traitsISaImEE9constructImJRKmEEEvRS0_PT_DpOT0_>
    1f1c:	48 8b 45 f8          	mov    -0x8(%rbp),%rax
    1f20:	48 8b 40 08          	mov    0x8(%rax),%rax
    1f24:	48 8d 50 08          	lea    0x8(%rax),%rdx
    1f28:	48 8b 45 f8          	mov    -0x8(%rbp),%rax
    1f2c:	48 89 50 08          	mov    %rdx,0x8(%rax)
    1f30:	eb 22                	jmp    1f54 <_ZNSt6vectorImSaImEE9push_backERKm+0x7c>
    1f32:	48 8b 45 f8          	mov    -0x8(%rbp),%rax
    1f36:	48 89 c7             	mov    %rax,%rdi
    1f39:	e8 66 00 00 00       	call   1fa4 <_ZNSt6vectorImSaImEE3endEv>
    1f3e:	48 89 c1             	mov    %rax,%rcx
    1f41:	48 8b 55 f0          	mov    -0x10(%rbp),%rdx
    1f45:	48 8b 45 f8          	mov    -0x8(%rbp),%rax
    1f49:	48 89 ce             	mov    %rcx,%rsi
    1f4c:	48 89 c7             	mov    %rax,%rdi
    1f4f:	e8 f4 07 00 00       	call   2748 <_ZNSt6vectorImSaImEE17_M_realloc_insertIJRKmEEEvN9__gnu_cxx17__normal_iteratorIPmS1_EEDpOT_>
    1f54:	90                   	nop
    1f55:	c9                   	leave  
    1f56:	c3                   	ret    
    1f57:	90                   	nop

0000000000001f58 <_ZNSt6vectorImSaImEE5beginEv>:
    1f58:	f3 0f 1e fa          	endbr64 
    1f5c:	55                   	push   %rbp
    1f5d:	48 89 e5             	mov    %rsp,%rbp
    1f60:	48 83 ec 20          	sub    $0x20,%rsp
    1f64:	48 89 7d e8          	mov    %rdi,-0x18(%rbp)
    1f68:	64 48 8b 04 25 28 00 	mov    %fs:0x28,%rax
    1f6f:	00 00 
    1f71:	48 89 45 f8          	mov    %rax,-0x8(%rbp)
    1f75:	31 c0                	xor    %eax,%eax
    1f77:	48 8b 55 e8          	mov    -0x18(%rbp),%rdx
    1f7b:	48 8d 45 f0          	lea    -0x10(%rbp),%rax
    1f7f:	48 89 d6             	mov    %rdx,%rsi
    1f82:	48 89 c7             	mov    %rax,%rdi
    1f85:	e8 b4 0a 00 00       	call   2a3e <_ZN9__gnu_cxx17__normal_iteratorIPmSt6vectorImSaImEEEC1ERKS1_>
    1f8a:	48 8b 45 f0          	mov    -0x10(%rbp),%rax
    1f8e:	48 8b 55 f8          	mov    -0x8(%rbp),%rdx
    1f92:	64 48 2b 14 25 28 00 	sub    %fs:0x28,%rdx
    1f99:	00 00 
    1f9b:	74 05                	je     1fa2 <_ZNSt6vectorImSaImEE5beginEv+0x4a>
    1f9d:	e8 3e f3 ff ff       	call   12e0 <__stack_chk_fail@plt>
    1fa2:	c9                   	leave  
    1fa3:	c3                   	ret    

0000000000001fa4 <_ZNSt6vectorImSaImEE3endEv>:
    1fa4:	f3 0f 1e fa          	endbr64 
    1fa8:	55                   	push   %rbp
    1fa9:	48 89 e5             	mov    %rsp,%rbp
    1fac:	48 83 ec 20          	sub    $0x20,%rsp
    1fb0:	48 89 7d e8          	mov    %rdi,-0x18(%rbp)
    1fb4:	64 48 8b 04 25 28 00 	mov    %fs:0x28,%rax
    1fbb:	00 00 
    1fbd:	48 89 45 f8          	mov    %rax,-0x8(%rbp)
    1fc1:	31 c0                	xor    %eax,%eax
    1fc3:	48 8b 45 e8          	mov    -0x18(%rbp),%rax
    1fc7:	48 8d 50 08          	lea    0x8(%rax),%rdx
    1fcb:	48 8d 45 f0          	lea    -0x10(%rbp),%rax
    1fcf:	48 89 d6             	mov    %rdx,%rsi
    1fd2:	48 89 c7             	mov    %rax,%rdi
    1fd5:	e8 64 0a 00 00       	call   2a3e <_ZN9__gnu_cxx17__normal_iteratorIPmSt6vectorImSaImEEEC1ERKS1_>
    1fda:	48 8b 45 f0          	mov    -0x10(%rbp),%rax
    1fde:	48 8b 55 f8          	mov    -0x8(%rbp),%rdx
    1fe2:	64 48 2b 14 25 28 00 	sub    %fs:0x28,%rdx
    1fe9:	00 00 
    1feb:	74 05                	je     1ff2 <_ZNSt6vectorImSaImEE3endEv+0x4e>
    1fed:	e8 ee f2 ff ff       	call   12e0 <__stack_chk_fail@plt>
    1ff2:	c9                   	leave  
    1ff3:	c3                   	ret    

0000000000001ff4 <_ZN9__gnu_cxxneIPmSt6vectorImSaImEEEEbRKNS_17__normal_iteratorIT_T0_EESA_>:
    1ff4:	f3 0f 1e fa          	endbr64 
    1ff8:	55                   	push   %rbp
    1ff9:	48 89 e5             	mov    %rsp,%rbp
    1ffc:	53                   	push   %rbx
    1ffd:	48 83 ec 18          	sub    $0x18,%rsp
    2001:	48 89 7d e8          	mov    %rdi,-0x18(%rbp)
    2005:	48 89 75 e0          	mov    %rsi,-0x20(%rbp)
    2009:	48 8b 45 e8          	mov    -0x18(%rbp),%rax
    200d:	48 89 c7             	mov    %rax,%rdi
    2010:	e8 4b 0a 00 00       	call   2a60 <_ZNK9__gnu_cxx17__normal_iteratorIPmSt6vectorImSaImEEE4baseEv>
    2015:	48 8b 18             	mov    (%rax),%rbx
    2018:	48 8b 45 e0          	mov    -0x20(%rbp),%rax
    201c:	48 89 c7             	mov    %rax,%rdi
    201f:	e8 3c 0a 00 00       	call   2a60 <_ZNK9__gnu_cxx17__normal_iteratorIPmSt6vectorImSaImEEE4baseEv>
    2024:	48 8b 00             	mov    (%rax),%rax
    2027:	48 39 c3             	cmp    %rax,%rbx
    202a:	0f 95 c0             	setne  %al
    202d:	48 8b 5d f8          	mov    -0x8(%rbp),%rbx
    2031:	c9                   	leave  
    2032:	c3                   	ret    
    2033:	90                   	nop

0000000000002034 <_ZN9__gnu_cxx17__normal_iteratorIPmSt6vectorImSaImEEEppEv>:
    2034:	f3 0f 1e fa          	endbr64 
    2038:	55                   	push   %rbp
    2039:	48 89 e5             	mov    %rsp,%rbp
    203c:	48 89 7d f8          	mov    %rdi,-0x8(%rbp)
    2040:	48 8b 45 f8          	mov    -0x8(%rbp),%rax
    2044:	48 8b 00             	mov    (%rax),%rax
    2047:	48 8d 50 08          	lea    0x8(%rax),%rdx
    204b:	48 8b 45 f8          	mov    -0x8(%rbp),%rax
    204f:	48 89 10             	mov    %rdx,(%rax)
    2052:	48 8b 45 f8          	mov    -0x8(%rbp),%rax
    2056:	5d                   	pop    %rbp
    2057:	c3                   	ret    

0000000000002058 <_ZNK9__gnu_cxx17__normal_iteratorIPmSt6vectorImSaImEEEdeEv>:
    2058:	f3 0f 1e fa          	endbr64 
    205c:	55                   	push   %rbp
    205d:	48 89 e5             	mov    %rsp,%rbp
    2060:	48 89 7d f8          	mov    %rdi,-0x8(%rbp)
    2064:	48 8b 45 f8          	mov    -0x8(%rbp),%rax
    2068:	48 8b 00             	mov    (%rax),%rax
    206b:	5d                   	pop    %rbp
    206c:	c3                   	ret    
    206d:	90                   	nop

000000000000206e <_ZNSt6vectorIP10ThreadDataSaIS1_EE5beginEv>:
    206e:	f3 0f 1e fa          	endbr64 
    2072:	55                   	push   %rbp
    2073:	48 89 e5             	mov    %rsp,%rbp
    2076:	48 83 ec 20          	sub    $0x20,%rsp
    207a:	48 89 7d e8          	mov    %rdi,-0x18(%rbp)
    207e:	64 48 8b 04 25 28 00 	mov    %fs:0x28,%rax
    2085:	00 00 
    2087:	48 89 45 f8          	mov    %rax,-0x8(%rbp)
    208b:	31 c0                	xor    %eax,%eax
    208d:	48 8b 55 e8          	mov    -0x18(%rbp),%rdx
    2091:	48 8d 45 f0          	lea    -0x10(%rbp),%rax
    2095:	48 89 d6             	mov    %rdx,%rsi
    2098:	48 89 c7             	mov    %rax,%rdi
    209b:	e8 d2 09 00 00       	call   2a72 <_ZN9__gnu_cxx17__normal_iteratorIPP10ThreadDataSt6vectorIS2_SaIS2_EEEC1ERKS3_>
    20a0:	48 8b 45 f0          	mov    -0x10(%rbp),%rax
    20a4:	48 8b 55 f8          	mov    -0x8(%rbp),%rdx
    20a8:	64 48 2b 14 25 28 00 	sub    %fs:0x28,%rdx
    20af:	00 00 
    20b1:	74 05                	je     20b8 <_ZNSt6vectorIP10ThreadDataSaIS1_EE5beginEv+0x4a>
    20b3:	e8 28 f2 ff ff       	call   12e0 <__stack_chk_fail@plt>
    20b8:	c9                   	leave  
    20b9:	c3                   	ret    

00000000000020ba <_ZNSt6vectorIP10ThreadDataSaIS1_EE3endEv>:
    20ba:	f3 0f 1e fa          	endbr64 
    20be:	55                   	push   %rbp
    20bf:	48 89 e5             	mov    %rsp,%rbp
    20c2:	48 83 ec 20          	sub    $0x20,%rsp
    20c6:	48 89 7d e8          	mov    %rdi,-0x18(%rbp)
    20ca:	64 48 8b 04 25 28 00 	mov    %fs:0x28,%rax
    20d1:	00 00 
    20d3:	48 89 45 f8          	mov    %rax,-0x8(%rbp)
    20d7:	31 c0                	xor    %eax,%eax
    20d9:	48 8b 45 e8          	mov    -0x18(%rbp),%rax
    20dd:	48 8d 50 08          	lea    0x8(%rax),%rdx
    20e1:	48 8d 45 f0          	lea    -0x10(%rbp),%rax
    20e5:	48 89 d6             	mov    %rdx,%rsi
    20e8:	48 89 c7             	mov    %rax,%rdi
    20eb:	e8 82 09 00 00       	call   2a72 <_ZN9__gnu_cxx17__normal_iteratorIPP10ThreadDataSt6vectorIS2_SaIS2_EEEC1ERKS3_>
    20f0:	48 8b 45 f0          	mov    -0x10(%rbp),%rax
    20f4:	48 8b 55 f8          	mov    -0x8(%rbp),%rdx
    20f8:	64 48 2b 14 25 28 00 	sub    %fs:0x28,%rdx
    20ff:	00 00 
    2101:	74 05                	je     2108 <_ZNSt6vectorIP10ThreadDataSaIS1_EE3endEv+0x4e>
    2103:	e8 d8 f1 ff ff       	call   12e0 <__stack_chk_fail@plt>
    2108:	c9                   	leave  
    2109:	c3                   	ret    

000000000000210a <_ZN9__gnu_cxxneIPP10ThreadDataSt6vectorIS2_SaIS2_EEEEbRKNS_17__normal_iteratorIT_T0_EESC_>:
    210a:	f3 0f 1e fa          	endbr64 
    210e:	55                   	push   %rbp
    210f:	48 89 e5             	mov    %rsp,%rbp
    2112:	53                   	push   %rbx
    2113:	48 83 ec 18          	sub    $0x18,%rsp
    2117:	48 89 7d e8          	mov    %rdi,-0x18(%rbp)
    211b:	48 89 75 e0          	mov    %rsi,-0x20(%rbp)
    211f:	48 8b 45 e8          	mov    -0x18(%rbp),%rax
    2123:	48 89 c7             	mov    %rax,%rdi
    2126:	e8 69 09 00 00       	call   2a94 <_ZNK9__gnu_cxx17__normal_iteratorIPP10ThreadDataSt6vectorIS2_SaIS2_EEE4baseEv>
    212b:	48 8b 18             	mov    (%rax),%rbx
    212e:	48 8b 45 e0          	mov    -0x20(%rbp),%rax
    2132:	48 89 c7             	mov    %rax,%rdi
    2135:	e8 5a 09 00 00       	call   2a94 <_ZNK9__gnu_cxx17__normal_iteratorIPP10ThreadDataSt6vectorIS2_SaIS2_EEE4baseEv>
    213a:	48 8b 00             	mov    (%rax),%rax
    213d:	48 39 c3             	cmp    %rax,%rbx
    2140:	0f 95 c0             	setne  %al
    2143:	48 8b 5d f8          	mov    -0x8(%rbp),%rbx
    2147:	c9                   	leave  
    2148:	c3                   	ret    
    2149:	90                   	nop

000000000000214a <_ZN9__gnu_cxx17__normal_iteratorIPP10ThreadDataSt6vectorIS2_SaIS2_EEEppEv>:
    214a:	f3 0f 1e fa          	endbr64 
    214e:	55                   	push   %rbp
    214f:	48 89 e5             	mov    %rsp,%rbp
    2152:	48 89 7d f8          	mov    %rdi,-0x8(%rbp)
    2156:	48 8b 45 f8          	mov    -0x8(%rbp),%rax
    215a:	48 8b 00             	mov    (%rax),%rax
    215d:	48 8d 50 08          	lea    0x8(%rax),%rdx
    2161:	48 8b 45 f8          	mov    -0x8(%rbp),%rax
    2165:	48 89 10             	mov    %rdx,(%rax)
    2168:	48 8b 45 f8          	mov    -0x8(%rbp),%rax
    216c:	5d                   	pop    %rbp
    216d:	c3                   	ret    

000000000000216e <_ZNK9__gnu_cxx17__normal_iteratorIPP10ThreadDataSt6vectorIS2_SaIS2_EEEdeEv>:
    216e:	f3 0f 1e fa          	endbr64 
    2172:	55                   	push   %rbp
    2173:	48 89 e5             	mov    %rsp,%rbp
    2176:	48 89 7d f8          	mov    %rdi,-0x8(%rbp)
    217a:	48 8b 45 f8          	mov    -0x8(%rbp),%rax
    217e:	48 8b 00             	mov    (%rax),%rax
    2181:	5d                   	pop    %rbp
    2182:	c3                   	ret    

0000000000002183 <_ZSt4moveIRNSt7__cxx1112basic_stringIcSt11char_traitsIcESaIcEEEEONSt16remove_referenceIT_E4typeEOS8_>:
    2183:	f3 0f 1e fa          	endbr64 
    2187:	55                   	push   %rbp
    2188:	48 89 e5             	mov    %rsp,%rbp
    218b:	48 89 7d f8          	mov    %rdi,-0x8(%rbp)
    218f:	48 8b 45 f8          	mov    -0x8(%rbp),%rax
    2193:	5d                   	pop    %rbp
    2194:	c3                   	ret    
    2195:	90                   	nop

0000000000002196 <_ZNSaImEC1Ev>:
    2196:	f3 0f 1e fa          	endbr64 
    219a:	55                   	push   %rbp
    219b:	48 89 e5             	mov    %rsp,%rbp
    219e:	48 83 ec 10          	sub    $0x10,%rsp
    21a2:	48 89 7d f8          	mov    %rdi,-0x8(%rbp)
    21a6:	48 8b 45 f8          	mov    -0x8(%rbp),%rax
    21aa:	48 89 c7             	mov    %rax,%rdi
    21ad:	e8 f4 08 00 00       	call   2aa6 <_ZN9__gnu_cxx13new_allocatorImEC1Ev>
    21b2:	90                   	nop
    21b3:	c9                   	leave  
    21b4:	c3                   	ret    
    21b5:	90                   	nop

00000000000021b6 <_ZNSt12_Vector_baseImSaImEE17_Vector_impl_dataC1Ev>:
    21b6:	f3 0f 1e fa          	endbr64 
    21ba:	55                   	push   %rbp
    21bb:	48 89 e5             	mov    %rsp,%rbp
    21be:	48 89 7d f8          	mov    %rdi,-0x8(%rbp)
    21c2:	48 8b 45 f8          	mov    -0x8(%rbp),%rax
    21c6:	48 c7 00 00 00 00 00 	movq   $0x0,(%rax)
    21cd:	48 8b 45 f8          	mov    -0x8(%rbp),%rax
    21d1:	48 c7 40 08 00 00 00 	movq   $0x0,0x8(%rax)
    21d8:	00 
    21d9:	48 8b 45 f8          	mov    -0x8(%rbp),%rax
    21dd:	48 c7 40 10 00 00 00 	movq   $0x0,0x10(%rax)
    21e4:	00 
    21e5:	90                   	nop
    21e6:	5d                   	pop    %rbp
    21e7:	c3                   	ret    

00000000000021e8 <_ZN9__gnu_cxx13new_allocatorImED1Ev>:
    21e8:	f3 0f 1e fa          	endbr64 
    21ec:	55                   	push   %rbp
    21ed:	48 89 e5             	mov    %rsp,%rbp
    21f0:	48 89 7d f8          	mov    %rdi,-0x8(%rbp)
    21f4:	90                   	nop
    21f5:	5d                   	pop    %rbp
    21f6:	c3                   	ret    
    21f7:	90                   	nop

00000000000021f8 <_ZNSt12_Vector_baseImSaImEE13_M_deallocateEPmm>:
    21f8:	f3 0f 1e fa          	endbr64 
    21fc:	55                   	push   %rbp
    21fd:	48 89 e5             	mov    %rsp,%rbp
    2200:	48 83 ec 20          	sub    $0x20,%rsp
    2204:	48 89 7d f8          	mov    %rdi,-0x8(%rbp)
    2208:	48 89 75 f0          	mov    %rsi,-0x10(%rbp)
    220c:	48 89 55 e8          	mov    %rdx,-0x18(%rbp)
    2210:	48 83 7d f0 00       	cmpq   $0x0,-0x10(%rbp)
    2215:	74 17                	je     222e <_ZNSt12_Vector_baseImSaImEE13_M_deallocateEPmm+0x36>
    2217:	48 8b 45 f8          	mov    -0x8(%rbp),%rax
    221b:	48 8b 55 e8          	mov    -0x18(%rbp),%rdx
    221f:	48 8b 4d f0          	mov    -0x10(%rbp),%rcx
    2223:	48 89 ce             	mov    %rcx,%rsi
    2226:	48 89 c7             	mov    %rax,%rdi
    2229:	e8 87 08 00 00       	call   2ab5 <_ZNSt16allocator_traitsISaImEE10deallocateERS0_Pmm>
    222e:	90                   	nop
    222f:	c9                   	leave  
    2230:	c3                   	ret    
    2231:	90                   	nop

0000000000002232 <_ZNSt12_Vector_baseImSaImEE19_M_get_Tp_allocatorEv>:
    2232:	f3 0f 1e fa          	endbr64 
    2236:	55                   	push   %rbp
    2237:	48 89 e5             	mov    %rsp,%rbp
    223a:	48 89 7d f8          	mov    %rdi,-0x8(%rbp)
    223e:	48 8b 45 f8          	mov    -0x8(%rbp),%rax
    2242:	5d                   	pop    %rbp
    2243:	c3                   	ret    

0000000000002244 <_ZSt8_DestroyIPmmEvT_S1_RSaIT0_E>:
    2244:	f3 0f 1e fa          	endbr64 
    2248:	55                   	push   %rbp
    2249:	48 89 e5             	mov    %rsp,%rbp
    224c:	48 83 ec 20          	sub    $0x20,%rsp
    2250:	48 89 7d f8          	mov    %rdi,-0x8(%rbp)
    2254:	48 89 75 f0          	mov    %rsi,-0x10(%rbp)
    2258:	48 89 55 e8          	mov    %rdx,-0x18(%rbp)
    225c:	48 8b 55 f0          	mov    -0x10(%rbp),%rdx
    2260:	48 8b 45 f8          	mov    -0x8(%rbp),%rax
    2264:	48 89 d6             	mov    %rdx,%rsi
    2267:	48 89 c7             	mov    %rax,%rdi
    226a:	e8 78 08 00 00       	call   2ae7 <_ZSt8_DestroyIPmEvT_S1_>
    226f:	90                   	nop
    2270:	c9                   	leave  
    2271:	c3                   	ret    

0000000000002272 <_ZNSaIP10ThreadDataEC1Ev>:
    2272:	f3 0f 1e fa          	endbr64 
    2276:	55                   	push   %rbp
    2277:	48 89 e5             	mov    %rsp,%rbp
    227a:	48 83 ec 10          	sub    $0x10,%rsp
    227e:	48 89 7d f8          	mov    %rdi,-0x8(%rbp)
    2282:	48 8b 45 f8          	mov    -0x8(%rbp),%rax
    2286:	48 89 c7             	mov    %rax,%rdi
    2289:	e8 84 08 00 00       	call   2b12 <_ZN9__gnu_cxx13new_allocatorIP10ThreadDataEC1Ev>
    228e:	90                   	nop
    228f:	c9                   	leave  
    2290:	c3                   	ret    
    2291:	90                   	nop

0000000000002292 <_ZNSt12_Vector_baseIP10ThreadDataSaIS1_EE17_Vector_impl_dataC1Ev>:
    2292:	f3 0f 1e fa          	endbr64 
    2296:	55                   	push   %rbp
    2297:	48 89 e5             	mov    %rsp,%rbp
    229a:	48 89 7d f8          	mov    %rdi,-0x8(%rbp)
    229e:	48 8b 45 f8          	mov    -0x8(%rbp),%rax
    22a2:	48 c7 00 00 00 00 00 	movq   $0x0,(%rax)
    22a9:	48 8b 45 f8          	mov    -0x8(%rbp),%rax
    22ad:	48 c7 40 08 00 00 00 	movq   $0x0,0x8(%rax)
    22b4:	00 
    22b5:	48 8b 45 f8          	mov    -0x8(%rbp),%rax
    22b9:	48 c7 40 10 00 00 00 	movq   $0x0,0x10(%rax)
    22c0:	00 
    22c1:	90                   	nop
    22c2:	5d                   	pop    %rbp
    22c3:	c3                   	ret    

00000000000022c4 <_ZN9__gnu_cxx13new_allocatorIP10ThreadDataED1Ev>:
    22c4:	f3 0f 1e fa          	endbr64 
    22c8:	55                   	push   %rbp
    22c9:	48 89 e5             	mov    %rsp,%rbp
    22cc:	48 89 7d f8          	mov    %rdi,-0x8(%rbp)
    22d0:	90                   	nop
    22d1:	5d                   	pop    %rbp
    22d2:	c3                   	ret    
    22d3:	90                   	nop

00000000000022d4 <_ZNSt12_Vector_baseIP10ThreadDataSaIS1_EE13_M_deallocateEPS1_m>:
    22d4:	f3 0f 1e fa          	endbr64 
    22d8:	55                   	push   %rbp
    22d9:	48 89 e5             	mov    %rsp,%rbp
    22dc:	48 83 ec 20          	sub    $0x20,%rsp
    22e0:	48 89 7d f8          	mov    %rdi,-0x8(%rbp)
    22e4:	48 89 75 f0          	mov    %rsi,-0x10(%rbp)
    22e8:	48 89 55 e8          	mov    %rdx,-0x18(%rbp)
    22ec:	48 83 7d f0 00       	cmpq   $0x0,-0x10(%rbp)
    22f1:	74 17                	je     230a <_ZNSt12_Vector_baseIP10ThreadDataSaIS1_EE13_M_deallocateEPS1_m+0x36>
    22f3:	48 8b 45 f8          	mov    -0x8(%rbp),%rax
    22f7:	48 8b 55 e8          	mov    -0x18(%rbp),%rdx
    22fb:	48 8b 4d f0          	mov    -0x10(%rbp),%rcx
    22ff:	48 89 ce             	mov    %rcx,%rsi
    2302:	48 89 c7             	mov    %rax,%rdi
    2305:	e8 17 08 00 00       	call   2b21 <_ZNSt16allocator_traitsISaIP10ThreadDataEE10deallocateERS2_PS1_m>
    230a:	90                   	nop
    230b:	c9                   	leave  
    230c:	c3                   	ret    
    230d:	90                   	nop

000000000000230e <_ZNSt12_Vector_baseIP10ThreadDataSaIS1_EE19_M_get_Tp_allocatorEv>:
    230e:	f3 0f 1e fa          	endbr64 
    2312:	55                   	push   %rbp
    2313:	48 89 e5             	mov    %rsp,%rbp
    2316:	48 89 7d f8          	mov    %rdi,-0x8(%rbp)
    231a:	48 8b 45 f8          	mov    -0x8(%rbp),%rax
    231e:	5d                   	pop    %rbp
    231f:	c3                   	ret    

0000000000002320 <_ZSt8_DestroyIPP10ThreadDataS1_EvT_S3_RSaIT0_E>:
    2320:	f3 0f 1e fa          	endbr64 
    2324:	55                   	push   %rbp
    2325:	48 89 e5             	mov    %rsp,%rbp
    2328:	48 83 ec 20          	sub    $0x20,%rsp
    232c:	48 89 7d f8          	mov    %rdi,-0x8(%rbp)
    2330:	48 89 75 f0          	mov    %rsi,-0x10(%rbp)
    2334:	48 89 55 e8          	mov    %rdx,-0x18(%rbp)
    2338:	48 8b 55 f0          	mov    -0x10(%rbp),%rdx
    233c:	48 8b 45 f8          	mov    -0x8(%rbp),%rax
    2340:	48 89 d6             	mov    %rdx,%rsi
    2343:	48 89 c7             	mov    %rax,%rdi
    2346:	e8 08 08 00 00       	call   2b53 <_ZSt8_DestroyIPP10ThreadDataEvT_S3_>
    234b:	90                   	nop
    234c:	c9                   	leave  
    234d:	c3                   	ret    

000000000000234e <_ZNSt16allocator_traitsISaIP10ThreadDataEE9constructIS1_JRKS1_EEEvRS2_PT_DpOT0_>:
    234e:	f3 0f 1e fa          	endbr64 
    2352:	55                   	push   %rbp
    2353:	48 89 e5             	mov    %rsp,%rbp
    2356:	48 83 ec 20          	sub    $0x20,%rsp
    235a:	48 89 7d f8          	mov    %rdi,-0x8(%rbp)
    235e:	48 89 75 f0          	mov    %rsi,-0x10(%rbp)
    2362:	48 89 55 e8          	mov    %rdx,-0x18(%rbp)
    2366:	48 8b 45 e8          	mov    -0x18(%rbp),%rax
    236a:	48 89 c7             	mov    %rax,%rdi
    236d:	e8 0b 08 00 00       	call   2b7d <_ZSt7forwardIRKP10ThreadDataEOT_RNSt16remove_referenceIS4_E4typeE>
    2372:	48 89 c2             	mov    %rax,%rdx
    2375:	48 8b 4d f0          	mov    -0x10(%rbp),%rcx
    2379:	48 8b 45 f8          	mov    -0x8(%rbp),%rax
    237d:	48 89 ce             	mov    %rcx,%rsi
    2380:	48 89 c7             	mov    %rax,%rdi
    2383:	e8 08 08 00 00       	call   2b90 <_ZN9__gnu_cxx13new_allocatorIP10ThreadDataE9constructIS2_JRKS2_EEEvPT_DpOT0_>
    2388:	90                   	nop
    2389:	c9                   	leave  
    238a:	c3                   	ret    

000000000000238b <_ZNSt6vectorIP10ThreadDataSaIS1_EE15_S_use_relocateEv>:
    238b:	f3 0f 1e fa          	endbr64 
    238f:	55                   	push   %rbp
    2390:	48 89 e5             	mov    %rsp,%rbp
    2393:	48 83 ec 10          	sub    $0x10,%rsp
    2397:	64 48 8b 04 25 28 00 	mov    %fs:0x28,%rax
    239e:	00 00 
    23a0:	48 89 45 f8          	mov    %rax,-0x8(%rbp)
    23a4:	31 c0                	xor    %eax,%eax
    23a6:	e8 16 00 00 00       	call   23c1 <_ZNSt6vectorIP10ThreadDataSaIS1_EE19_S_nothrow_relocateESt17integral_constantIbLb1EE>
    23ab:	48 8b 55 f8          	mov    -0x8(%rbp),%rdx
    23af:	64 48 2b 14 25 28 00 	sub    %fs:0x28,%rdx
    23b6:	00 00 
    23b8:	74 05                	je     23bf <_ZNSt6vectorIP10ThreadDataSaIS1_EE15_S_use_relocateEv+0x34>
    23ba:	e8 21 ef ff ff       	call   12e0 <__stack_chk_fail@plt>
    23bf:	c9                   	leave  
    23c0:	c3                   	ret    

00000000000023c1 <_ZNSt6vectorIP10ThreadDataSaIS1_EE19_S_nothrow_relocateESt17integral_constantIbLb1EE>:
    23c1:	f3 0f 1e fa          	endbr64 
    23c5:	55                   	push   %rbp
    23c6:	48 89 e5             	mov    %rsp,%rbp
    23c9:	b8 01 00 00 00       	mov    $0x1,%eax
    23ce:	5d                   	pop    %rbp
    23cf:	c3                   	ret    

00000000000023d0 <_ZNSt6vectorIP10ThreadDataSaIS1_EE17_M_realloc_insertIJRKS1_EEEvN9__gnu_cxx17__normal_iteratorIPS1_S3_EEDpOT_>:
    23d0:	f3 0f 1e fa          	endbr64 
    23d4:	55                   	push   %rbp
    23d5:	48 89 e5             	mov    %rsp,%rbp
    23d8:	53                   	push   %rbx
    23d9:	48 83 ec 68          	sub    $0x68,%rsp
    23dd:	48 89 7d a8          	mov    %rdi,-0x58(%rbp)
    23e1:	48 89 75 a0          	mov    %rsi,-0x60(%rbp)
    23e5:	48 89 55 98          	mov    %rdx,-0x68(%rbp)
    23e9:	64 48 8b 04 25 28 00 	mov    %fs:0x28,%rax
    23f0:	00 00 
    23f2:	48 89 45 e8          	mov    %rax,-0x18(%rbp)
    23f6:	31 c0                	xor    %eax,%eax
    23f8:	48 8b 45 a8          	mov    -0x58(%rbp),%rax
    23fc:	48 8d 15 31 1c 00 00 	lea    0x1c31(%rip),%rdx        # 4034 <_ZStL19piecewise_construct+0x30>
    2403:	be 01 00 00 00       	mov    $0x1,%esi
    2408:	48 89 c7             	mov    %rax,%rdi
    240b:	e8 c4 07 00 00       	call   2bd4 <_ZNKSt6vectorIP10ThreadDataSaIS1_EE12_M_check_lenEmPKc>
    2410:	48 89 45 c0          	mov    %rax,-0x40(%rbp)
    2414:	48 8b 45 a8          	mov    -0x58(%rbp),%rax
    2418:	48 8b 00             	mov    (%rax),%rax
    241b:	48 89 45 c8          	mov    %rax,-0x38(%rbp)
    241f:	48 8b 45 a8          	mov    -0x58(%rbp),%rax
    2423:	48 8b 40 08          	mov    0x8(%rax),%rax
    2427:	48 89 45 d0          	mov    %rax,-0x30(%rbp)
    242b:	48 8b 45 a8          	mov    -0x58(%rbp),%rax
    242f:	48 89 c7             	mov    %rax,%rdi
    2432:	e8 37 fc ff ff       	call   206e <_ZNSt6vectorIP10ThreadDataSaIS1_EE5beginEv>
    2437:	48 89 45 b0          	mov    %rax,-0x50(%rbp)
    243b:	48 8d 55 b0          	lea    -0x50(%rbp),%rdx
    243f:	48 8d 45 a0          	lea    -0x60(%rbp),%rax
    2443:	48 89 d6             	mov    %rdx,%rsi
    2446:	48 89 c7             	mov    %rax,%rdi
    2449:	e8 75 08 00 00       	call   2cc3 <_ZN9__gnu_cxxmiIPP10ThreadDataSt6vectorIS2_SaIS2_EEEENS_17__normal_iteratorIT_T0_E15difference_typeERKSA_SD_>
    244e:	48 89 45 d8          	mov    %rax,-0x28(%rbp)
    2452:	48 8b 45 a8          	mov    -0x58(%rbp),%rax
    2456:	48 8b 55 c0          	mov    -0x40(%rbp),%rdx
    245a:	48 89 d6             	mov    %rdx,%rsi
    245d:	48 89 c7             	mov    %rax,%rdi
    2460:	e8 a1 08 00 00       	call   2d06 <_ZNSt12_Vector_baseIP10ThreadDataSaIS1_EE11_M_allocateEm>
    2465:	48 89 45 e0          	mov    %rax,-0x20(%rbp)
    2469:	48 8b 45 e0          	mov    -0x20(%rbp),%rax
    246d:	48 89 45 b8          	mov    %rax,-0x48(%rbp)
    2471:	48 8b 45 98          	mov    -0x68(%rbp),%rax
    2475:	48 89 c7             	mov    %rax,%rdi
    2478:	e8 00 07 00 00       	call   2b7d <_ZSt7forwardIRKP10ThreadDataEOT_RNSt16remove_referenceIS4_E4typeE>
    247d:	48 89 c2             	mov    %rax,%rdx
    2480:	48 8b 45 d8          	mov    -0x28(%rbp),%rax
    2484:	48 8d 0c c5 00 00 00 	lea    0x0(,%rax,8),%rcx
    248b:	00 
    248c:	48 8b 45 e0          	mov    -0x20(%rbp),%rax
    2490:	48 01 c1             	add    %rax,%rcx
    2493:	48 8b 45 a8          	mov    -0x58(%rbp),%rax
    2497:	48 89 ce             	mov    %rcx,%rsi
    249a:	48 89 c7             	mov    %rax,%rdi
    249d:	e8 ac fe ff ff       	call   234e <_ZNSt16allocator_traitsISaIP10ThreadDataEE9constructIS1_JRKS1_EEEvRS2_PT_DpOT0_>
    24a2:	48 c7 45 b8 00 00 00 	movq   $0x0,-0x48(%rbp)
    24a9:	00 
    24aa:	e8 dc fe ff ff       	call   238b <_ZNSt6vectorIP10ThreadDataSaIS1_EE15_S_use_relocateEv>
    24af:	84 c0                	test   %al,%al
    24b1:	74 71                	je     2524 <_ZNSt6vectorIP10ThreadDataSaIS1_EE17_M_realloc_insertIJRKS1_EEEvN9__gnu_cxx17__normal_iteratorIPS1_S3_EEDpOT_+0x154>
    24b3:	48 8b 45 a8          	mov    -0x58(%rbp),%rax
    24b7:	48 89 c7             	mov    %rax,%rdi
    24ba:	e8 4f fe ff ff       	call   230e <_ZNSt12_Vector_baseIP10ThreadDataSaIS1_EE19_M_get_Tp_allocatorEv>
    24bf:	48 89 c3             	mov    %rax,%rbx
    24c2:	48 8d 45 a0          	lea    -0x60(%rbp),%rax
    24c6:	48 89 c7             	mov    %rax,%rdi
    24c9:	e8 c6 05 00 00       	call   2a94 <_ZNK9__gnu_cxx17__normal_iteratorIPP10ThreadDataSt6vectorIS2_SaIS2_EEE4baseEv>
    24ce:	48 8b 30             	mov    (%rax),%rsi
    24d1:	48 8b 55 e0          	mov    -0x20(%rbp),%rdx
    24d5:	48 8b 45 c8          	mov    -0x38(%rbp),%rax
    24d9:	48 89 d9             	mov    %rbx,%rcx
    24dc:	48 89 c7             	mov    %rax,%rdi
    24df:	e8 59 08 00 00       	call   2d3d <_ZNSt6vectorIP10ThreadDataSaIS1_EE11_S_relocateEPS1_S4_S4_RS2_>
    24e4:	48 89 45 b8          	mov    %rax,-0x48(%rbp)
    24e8:	48 83 45 b8 08       	addq   $0x8,-0x48(%rbp)
    24ed:	48 8b 45 a8          	mov    -0x58(%rbp),%rax
    24f1:	48 89 c7             	mov    %rax,%rdi
    24f4:	e8 15 fe ff ff       	call   230e <_ZNSt12_Vector_baseIP10ThreadDataSaIS1_EE19_M_get_Tp_allocatorEv>
    24f9:	48 89 c3             	mov    %rax,%rbx
    24fc:	48 8d 45 a0          	lea    -0x60(%rbp),%rax
    2500:	48 89 c7             	mov    %rax,%rdi
    2503:	e8 8c 05 00 00       	call   2a94 <_ZNK9__gnu_cxx17__normal_iteratorIPP10ThreadDataSt6vectorIS2_SaIS2_EEE4baseEv>
    2508:	48 8b 00             	mov    (%rax),%rax
    250b:	48 8b 55 b8          	mov    -0x48(%rbp),%rdx
    250f:	48 8b 75 d0          	mov    -0x30(%rbp),%rsi
    2513:	48 89 d9             	mov    %rbx,%rcx
    2516:	48 89 c7             	mov    %rax,%rdi
    2519:	e8 1f 08 00 00       	call   2d3d <_ZNSt6vectorIP10ThreadDataSaIS1_EE11_S_relocateEPS1_S4_S4_RS2_>
    251e:	48 89 45 b8          	mov    %rax,-0x48(%rbp)
    2522:	eb 6f                	jmp    2593 <_ZNSt6vectorIP10ThreadDataSaIS1_EE17_M_realloc_insertIJRKS1_EEEvN9__gnu_cxx17__normal_iteratorIPS1_S3_EEDpOT_+0x1c3>
    2524:	48 8b 45 a8          	mov    -0x58(%rbp),%rax
    2528:	48 89 c7             	mov    %rax,%rdi
    252b:	e8 de fd ff ff       	call   230e <_ZNSt12_Vector_baseIP10ThreadDataSaIS1_EE19_M_get_Tp_allocatorEv>
    2530:	48 89 c3             	mov    %rax,%rbx
    2533:	48 8d 45 a0          	lea    -0x60(%rbp),%rax
    2537:	48 89 c7             	mov    %rax,%rdi
    253a:	e8 55 05 00 00       	call   2a94 <_ZNK9__gnu_cxx17__normal_iteratorIPP10ThreadDataSt6vectorIS2_SaIS2_EEE4baseEv>
    253f:	48 8b 30             	mov    (%rax),%rsi
    2542:	48 8b 55 e0          	mov    -0x20(%rbp),%rdx
    2546:	48 8b 45 c8          	mov    -0x38(%rbp),%rax
    254a:	48 89 d9             	mov    %rbx,%rcx
    254d:	48 89 c7             	mov    %rax,%rdi
    2550:	e8 1e 08 00 00       	call   2d73 <_ZSt34__uninitialized_move_if_noexcept_aIPP10ThreadDataS2_SaIS1_EET0_T_S5_S4_RT1_>
    2555:	48 89 45 b8          	mov    %rax,-0x48(%rbp)
    2559:	48 83 45 b8 08       	addq   $0x8,-0x48(%rbp)
    255e:	48 8b 45 a8          	mov    -0x58(%rbp),%rax
    2562:	48 89 c7             	mov    %rax,%rdi
    2565:	e8 a4 fd ff ff       	call   230e <_ZNSt12_Vector_baseIP10ThreadDataSaIS1_EE19_M_get_Tp_allocatorEv>
    256a:	48 89 c3             	mov    %rax,%rbx
    256d:	48 8d 45 a0          	lea    -0x60(%rbp),%rax
    2571:	48 89 c7             	mov    %rax,%rdi
    2574:	e8 1b 05 00 00       	call   2a94 <_ZNK9__gnu_cxx17__normal_iteratorIPP10ThreadDataSt6vectorIS2_SaIS2_EEE4baseEv>
    2579:	48 8b 00             	mov    (%rax),%rax
    257c:	48 8b 55 b8          	mov    -0x48(%rbp),%rdx
    2580:	48 8b 75 d0          	mov    -0x30(%rbp),%rsi
    2584:	48 89 d9             	mov    %rbx,%rcx
    2587:	48 89 c7             	mov    %rax,%rdi
    258a:	e8 e4 07 00 00       	call   2d73 <_ZSt34__uninitialized_move_if_noexcept_aIPP10ThreadDataS2_SaIS1_EET0_T_S5_S4_RT1_>
    258f:	48 89 45 b8          	mov    %rax,-0x48(%rbp)
    2593:	e8 f3 fd ff ff       	call   238b <_ZNSt6vectorIP10ThreadDataSaIS1_EE15_S_use_relocateEv>
    2598:	83 f0 01             	xor    $0x1,%eax
    259b:	84 c0                	test   %al,%al
    259d:	74 22                	je     25c1 <_ZNSt6vectorIP10ThreadDataSaIS1_EE17_M_realloc_insertIJRKS1_EEEvN9__gnu_cxx17__normal_iteratorIPS1_S3_EEDpOT_+0x1f1>
    259f:	48 8b 45 a8          	mov    -0x58(%rbp),%rax
    25a3:	48 89 c7             	mov    %rax,%rdi
    25a6:	e8 63 fd ff ff       	call   230e <_ZNSt12_Vector_baseIP10ThreadDataSaIS1_EE19_M_get_Tp_allocatorEv>
    25ab:	48 89 c2             	mov    %rax,%rdx
    25ae:	48 8b 4d d0          	mov    -0x30(%rbp),%rcx
    25b2:	48 8b 45 c8          	mov    -0x38(%rbp),%rax
    25b6:	48 89 ce             	mov    %rcx,%rsi
    25b9:	48 89 c7             	mov    %rax,%rdi
    25bc:	e8 5f fd ff ff       	call   2320 <_ZSt8_DestroyIPP10ThreadDataS1_EvT_S3_RSaIT0_E>
    25c1:	48 8b 45 a8          	mov    -0x58(%rbp),%rax
    25c5:	48 8b 55 a8          	mov    -0x58(%rbp),%rdx
    25c9:	48 8b 52 10          	mov    0x10(%rdx),%rdx
    25cd:	48 2b 55 c8          	sub    -0x38(%rbp),%rdx
    25d1:	48 c1 fa 03          	sar    $0x3,%rdx
    25d5:	48 8b 4d c8          	mov    -0x38(%rbp),%rcx
    25d9:	48 89 ce             	mov    %rcx,%rsi
    25dc:	48 89 c7             	mov    %rax,%rdi
    25df:	e8 f0 fc ff ff       	call   22d4 <_ZNSt12_Vector_baseIP10ThreadDataSaIS1_EE13_M_deallocateEPS1_m>
    25e4:	48 8b 45 a8          	mov    -0x58(%rbp),%rax
    25e8:	48 8b 55 e0          	mov    -0x20(%rbp),%rdx
    25ec:	48 89 10             	mov    %rdx,(%rax)
    25ef:	48 8b 45 a8          	mov    -0x58(%rbp),%rax
    25f3:	48 8b 55 b8          	mov    -0x48(%rbp),%rdx
    25f7:	48 89 50 08          	mov    %rdx,0x8(%rax)
    25fb:	48 8b 45 c0          	mov    -0x40(%rbp),%rax
    25ff:	48 8d 14 c5 00 00 00 	lea    0x0(,%rax,8),%rdx
    2606:	00 
    2607:	48 8b 45 e0          	mov    -0x20(%rbp),%rax
    260b:	48 01 c2             	add    %rax,%rdx
    260e:	48 8b 45 a8          	mov    -0x58(%rbp),%rax
    2612:	48 89 50 10          	mov    %rdx,0x10(%rax)
    2616:	90                   	nop
    2617:	48 8b 45 e8          	mov    -0x18(%rbp),%rax
    261b:	64 48 2b 04 25 28 00 	sub    %fs:0x28,%rax
    2622:	00 00 
    2624:	0f 84 96 00 00 00    	je     26c0 <_ZNSt6vectorIP10ThreadDataSaIS1_EE17_M_realloc_insertIJRKS1_EEEvN9__gnu_cxx17__normal_iteratorIPS1_S3_EEDpOT_+0x2f0>
    262a:	e9 8c 00 00 00       	jmp    26bb <_ZNSt6vectorIP10ThreadDataSaIS1_EE17_M_realloc_insertIJRKS1_EEEvN9__gnu_cxx17__normal_iteratorIPS1_S3_EEDpOT_+0x2eb>
    262f:	f3 0f 1e fa          	endbr64 
    2633:	48 89 c7             	mov    %rax,%rdi
    2636:	e8 e5 eb ff ff       	call   1220 <__cxa_begin_catch@plt>
    263b:	48 83 7d b8 00       	cmpq   $0x0,-0x48(%rbp)
    2640:	75 24                	jne    2666 <_ZNSt6vectorIP10ThreadDataSaIS1_EE17_M_realloc_insertIJRKS1_EEEvN9__gnu_cxx17__normal_iteratorIPS1_S3_EEDpOT_+0x296>
    2642:	48 8b 45 d8          	mov    -0x28(%rbp),%rax
    2646:	48 8d 14 c5 00 00 00 	lea    0x0(,%rax,8),%rdx
    264d:	00 
    264e:	48 8b 45 e0          	mov    -0x20(%rbp),%rax
    2652:	48 01 c2             	add    %rax,%rdx
    2655:	48 8b 45 a8          	mov    -0x58(%rbp),%rax
    2659:	48 89 d6             	mov    %rdx,%rsi
    265c:	48 89 c7             	mov    %rax,%rdi
    265f:	e8 66 07 00 00       	call   2dca <_ZNSt16allocator_traitsISaIP10ThreadDataEE7destroyIS1_EEvRS2_PT_>
    2664:	eb 22                	jmp    2688 <_ZNSt6vectorIP10ThreadDataSaIS1_EE17_M_realloc_insertIJRKS1_EEEvN9__gnu_cxx17__normal_iteratorIPS1_S3_EEDpOT_+0x2b8>
    2666:	48 8b 45 a8          	mov    -0x58(%rbp),%rax
    266a:	48 89 c7             	mov    %rax,%rdi
    266d:	e8 9c fc ff ff       	call   230e <_ZNSt12_Vector_baseIP10ThreadDataSaIS1_EE19_M_get_Tp_allocatorEv>
    2672:	48 89 c2             	mov    %rax,%rdx
    2675:	48 8b 4d b8          	mov    -0x48(%rbp),%rcx
    2679:	48 8b 45 e0          	mov    -0x20(%rbp),%rax
    267d:	48 89 ce             	mov    %rcx,%rsi
    2680:	48 89 c7             	mov    %rax,%rdi
    2683:	e8 98 fc ff ff       	call   2320 <_ZSt8_DestroyIPP10ThreadDataS1_EvT_S3_RSaIT0_E>
    2688:	48 8b 45 a8          	mov    -0x58(%rbp),%rax
    268c:	48 8b 55 c0          	mov    -0x40(%rbp),%rdx
    2690:	48 8b 4d e0          	mov    -0x20(%rbp),%rcx
    2694:	48 89 ce             	mov    %rcx,%rsi
    2697:	48 89 c7             	mov    %rax,%rdi
    269a:	e8 35 fc ff ff       	call   22d4 <_ZNSt12_Vector_baseIP10ThreadDataSaIS1_EE13_M_deallocateEPS1_m>
    269f:	e8 7c ec ff ff       	call   1320 <__cxa_rethrow@plt>
    26a4:	f3 0f 1e fa          	endbr64 
    26a8:	48 89 c3             	mov    %rax,%rbx
    26ab:	e8 a0 ec ff ff       	call   1350 <__cxa_end_catch@plt>
    26b0:	48 89 d8             	mov    %rbx,%rax
    26b3:	48 89 c7             	mov    %rax,%rdi
    26b6:	e8 a5 ec ff ff       	call   1360 <_Unwind_Resume@plt>
    26bb:	e8 20 ec ff ff       	call   12e0 <__stack_chk_fail@plt>
    26c0:	48 8b 5d f8          	mov    -0x8(%rbp),%rbx
    26c4:	c9                   	leave  
    26c5:	c3                   	ret    

00000000000026c6 <_ZNSt16allocator_traitsISaImEE9constructImJRKmEEEvRS0_PT_DpOT0_>:
    26c6:	f3 0f 1e fa          	endbr64 
    26ca:	55                   	push   %rbp
    26cb:	48 89 e5             	mov    %rsp,%rbp
    26ce:	48 83 ec 20          	sub    $0x20,%rsp
    26d2:	48 89 7d f8          	mov    %rdi,-0x8(%rbp)
    26d6:	48 89 75 f0          	mov    %rsi,-0x10(%rbp)
    26da:	48 89 55 e8          	mov    %rdx,-0x18(%rbp)
    26de:	48 8b 45 e8          	mov    -0x18(%rbp),%rax
    26e2:	48 89 c7             	mov    %rax,%rdi
    26e5:	e8 0a 07 00 00       	call   2df4 <_ZSt7forwardIRKmEOT_RNSt16remove_referenceIS2_E4typeE>
    26ea:	48 89 c2             	mov    %rax,%rdx
    26ed:	48 8b 4d f0          	mov    -0x10(%rbp),%rcx
    26f1:	48 8b 45 f8          	mov    -0x8(%rbp),%rax
    26f5:	48 89 ce             	mov    %rcx,%rsi
    26f8:	48 89 c7             	mov    %rax,%rdi
    26fb:	e8 06 07 00 00       	call   2e06 <_ZN9__gnu_cxx13new_allocatorImE9constructImJRKmEEEvPT_DpOT0_>
    2700:	90                   	nop
    2701:	c9                   	leave  
    2702:	c3                   	ret    

0000000000002703 <_ZNSt6vectorImSaImEE15_S_use_relocateEv>:
    2703:	f3 0f 1e fa          	endbr64 
    2707:	55                   	push   %rbp
    2708:	48 89 e5             	mov    %rsp,%rbp
    270b:	48 83 ec 10          	sub    $0x10,%rsp
    270f:	64 48 8b 04 25 28 00 	mov    %fs:0x28,%rax
    2716:	00 00 
    2718:	48 89 45 f8          	mov    %rax,-0x8(%rbp)
    271c:	31 c0                	xor    %eax,%eax
    271e:	e8 16 00 00 00       	call   2739 <_ZNSt6vectorImSaImEE19_S_nothrow_relocateESt17integral_constantIbLb1EE>
    2723:	48 8b 55 f8          	mov    -0x8(%rbp),%rdx
    2727:	64 48 2b 14 25 28 00 	sub    %fs:0x28,%rdx
    272e:	00 00 
    2730:	74 05                	je     2737 <_ZNSt6vectorImSaImEE15_S_use_relocateEv+0x34>
    2732:	e8 a9 eb ff ff       	call   12e0 <__stack_chk_fail@plt>
    2737:	c9                   	leave  
    2738:	c3                   	ret    

0000000000002739 <_ZNSt6vectorImSaImEE19_S_nothrow_relocateESt17integral_constantIbLb1EE>:
    2739:	f3 0f 1e fa          	endbr64 
    273d:	55                   	push   %rbp
    273e:	48 89 e5             	mov    %rsp,%rbp
    2741:	b8 01 00 00 00       	mov    $0x1,%eax
    2746:	5d                   	pop    %rbp
    2747:	c3                   	ret    

0000000000002748 <_ZNSt6vectorImSaImEE17_M_realloc_insertIJRKmEEEvN9__gnu_cxx17__normal_iteratorIPmS1_EEDpOT_>:
    2748:	f3 0f 1e fa          	endbr64 
    274c:	55                   	push   %rbp
    274d:	48 89 e5             	mov    %rsp,%rbp
    2750:	53                   	push   %rbx
    2751:	48 83 ec 68          	sub    $0x68,%rsp
    2755:	48 89 7d a8          	mov    %rdi,-0x58(%rbp)
    2759:	48 89 75 a0          	mov    %rsi,-0x60(%rbp)
    275d:	48 89 55 98          	mov    %rdx,-0x68(%rbp)
    2761:	64 48 8b 04 25 28 00 	mov    %fs:0x28,%rax
    2768:	00 00 
    276a:	48 89 45 e8          	mov    %rax,-0x18(%rbp)
    276e:	31 c0                	xor    %eax,%eax
    2770:	48 8b 45 a8          	mov    -0x58(%rbp),%rax
    2774:	48 8d 15 b9 18 00 00 	lea    0x18b9(%rip),%rdx        # 4034 <_ZStL19piecewise_construct+0x30>
    277b:	be 01 00 00 00       	mov    $0x1,%esi
    2780:	48 89 c7             	mov    %rax,%rdi
    2783:	e8 c2 06 00 00       	call   2e4a <_ZNKSt6vectorImSaImEE12_M_check_lenEmPKc>
    2788:	48 89 45 c0          	mov    %rax,-0x40(%rbp)
    278c:	48 8b 45 a8          	mov    -0x58(%rbp),%rax
    2790:	48 8b 00             	mov    (%rax),%rax
    2793:	48 89 45 c8          	mov    %rax,-0x38(%rbp)
    2797:	48 8b 45 a8          	mov    -0x58(%rbp),%rax
    279b:	48 8b 40 08          	mov    0x8(%rax),%rax
    279f:	48 89 45 d0          	mov    %rax,-0x30(%rbp)
    27a3:	48 8b 45 a8          	mov    -0x58(%rbp),%rax
    27a7:	48 89 c7             	mov    %rax,%rdi
    27aa:	e8 a9 f7 ff ff       	call   1f58 <_ZNSt6vectorImSaImEE5beginEv>
    27af:	48 89 45 b0          	mov    %rax,-0x50(%rbp)
    27b3:	48 8d 55 b0          	lea    -0x50(%rbp),%rdx
    27b7:	48 8d 45 a0          	lea    -0x60(%rbp),%rax
    27bb:	48 89 d6             	mov    %rdx,%rsi
    27be:	48 89 c7             	mov    %rax,%rdi
    27c1:	e8 73 07 00 00       	call   2f39 <_ZN9__gnu_cxxmiIPmSt6vectorImSaImEEEENS_17__normal_iteratorIT_T0_E15difference_typeERKS8_SB_>
    27c6:	48 89 45 d8          	mov    %rax,-0x28(%rbp)
    27ca:	48 8b 45 a8          	mov    -0x58(%rbp),%rax
    27ce:	48 8b 55 c0          	mov    -0x40(%rbp),%rdx
    27d2:	48 89 d6             	mov    %rdx,%rsi
    27d5:	48 89 c7             	mov    %rax,%rdi
    27d8:	e8 9f 07 00 00       	call   2f7c <_ZNSt12_Vector_baseImSaImEE11_M_allocateEm>
    27dd:	48 89 45 e0          	mov    %rax,-0x20(%rbp)
    27e1:	48 8b 45 e0          	mov    -0x20(%rbp),%rax
    27e5:	48 89 45 b8          	mov    %rax,-0x48(%rbp)
    27e9:	48 8b 45 98          	mov    -0x68(%rbp),%rax
    27ed:	48 89 c7             	mov    %rax,%rdi
    27f0:	e8 ff 05 00 00       	call   2df4 <_ZSt7forwardIRKmEOT_RNSt16remove_referenceIS2_E4typeE>
    27f5:	48 89 c2             	mov    %rax,%rdx
    27f8:	48 8b 45 d8          	mov    -0x28(%rbp),%rax
    27fc:	48 8d 0c c5 00 00 00 	lea    0x0(,%rax,8),%rcx
    2803:	00 
    2804:	48 8b 45 e0          	mov    -0x20(%rbp),%rax
    2808:	48 01 c1             	add    %rax,%rcx
    280b:	48 8b 45 a8          	mov    -0x58(%rbp),%rax
    280f:	48 89 ce             	mov    %rcx,%rsi
    2812:	48 89 c7             	mov    %rax,%rdi
    2815:	e8 ac fe ff ff       	call   26c6 <_ZNSt16allocator_traitsISaImEE9constructImJRKmEEEvRS0_PT_DpOT0_>
    281a:	48 c7 45 b8 00 00 00 	movq   $0x0,-0x48(%rbp)
    2821:	00 
    2822:	e8 dc fe ff ff       	call   2703 <_ZNSt6vectorImSaImEE15_S_use_relocateEv>
    2827:	84 c0                	test   %al,%al
    2829:	74 71                	je     289c <_ZNSt6vectorImSaImEE17_M_realloc_insertIJRKmEEEvN9__gnu_cxx17__normal_iteratorIPmS1_EEDpOT_+0x154>
    282b:	48 8b 45 a8          	mov    -0x58(%rbp),%rax
    282f:	48 89 c7             	mov    %rax,%rdi
    2832:	e8 fb f9 ff ff       	call   2232 <_ZNSt12_Vector_baseImSaImEE19_M_get_Tp_allocatorEv>
    2837:	48 89 c3             	mov    %rax,%rbx
    283a:	48 8d 45 a0          	lea    -0x60(%rbp),%rax
    283e:	48 89 c7             	mov    %rax,%rdi
    2841:	e8 1a 02 00 00       	call   2a60 <_ZNK9__gnu_cxx17__normal_iteratorIPmSt6vectorImSaImEEE4baseEv>
    2846:	48 8b 30             	mov    (%rax),%rsi
    2849:	48 8b 55 e0          	mov    -0x20(%rbp),%rdx
    284d:	48 8b 45 c8          	mov    -0x38(%rbp),%rax
    2851:	48 89 d9             	mov    %rbx,%rcx
    2854:	48 89 c7             	mov    %rax,%rdi
    2857:	e8 57 07 00 00       	call   2fb3 <_ZNSt6vectorImSaImEE11_S_relocateEPmS2_S2_RS0_>
    285c:	48 89 45 b8          	mov    %rax,-0x48(%rbp)
    2860:	48 83 45 b8 08       	addq   $0x8,-0x48(%rbp)
    2865:	48 8b 45 a8          	mov    -0x58(%rbp),%rax
    2869:	48 89 c7             	mov    %rax,%rdi
    286c:	e8 c1 f9 ff ff       	call   2232 <_ZNSt12_Vector_baseImSaImEE19_M_get_Tp_allocatorEv>
    2871:	48 89 c3             	mov    %rax,%rbx
    2874:	48 8d 45 a0          	lea    -0x60(%rbp),%rax
    2878:	48 89 c7             	mov    %rax,%rdi
    287b:	e8 e0 01 00 00       	call   2a60 <_ZNK9__gnu_cxx17__normal_iteratorIPmSt6vectorImSaImEEE4baseEv>
    2880:	48 8b 00             	mov    (%rax),%rax
    2883:	48 8b 55 b8          	mov    -0x48(%rbp),%rdx
    2887:	48 8b 75 d0          	mov    -0x30(%rbp),%rsi
    288b:	48 89 d9             	mov    %rbx,%rcx
    288e:	48 89 c7             	mov    %rax,%rdi
    2891:	e8 1d 07 00 00       	call   2fb3 <_ZNSt6vectorImSaImEE11_S_relocateEPmS2_S2_RS0_>
    2896:	48 89 45 b8          	mov    %rax,-0x48(%rbp)
    289a:	eb 6f                	jmp    290b <_ZNSt6vectorImSaImEE17_M_realloc_insertIJRKmEEEvN9__gnu_cxx17__normal_iteratorIPmS1_EEDpOT_+0x1c3>
    289c:	48 8b 45 a8          	mov    -0x58(%rbp),%rax
    28a0:	48 89 c7             	mov    %rax,%rdi
    28a3:	e8 8a f9 ff ff       	call   2232 <_ZNSt12_Vector_baseImSaImEE19_M_get_Tp_allocatorEv>
    28a8:	48 89 c3             	mov    %rax,%rbx
    28ab:	48 8d 45 a0          	lea    -0x60(%rbp),%rax
    28af:	48 89 c7             	mov    %rax,%rdi
    28b2:	e8 a9 01 00 00       	call   2a60 <_ZNK9__gnu_cxx17__normal_iteratorIPmSt6vectorImSaImEEE4baseEv>
    28b7:	48 8b 30             	mov    (%rax),%rsi
    28ba:	48 8b 55 e0          	mov    -0x20(%rbp),%rdx
    28be:	48 8b 45 c8          	mov    -0x38(%rbp),%rax
    28c2:	48 89 d9             	mov    %rbx,%rcx
    28c5:	48 89 c7             	mov    %rax,%rdi
    28c8:	e8 1c 07 00 00       	call   2fe9 <_ZSt34__uninitialized_move_if_noexcept_aIPmS0_SaImEET0_T_S3_S2_RT1_>
    28cd:	48 89 45 b8          	mov    %rax,-0x48(%rbp)
    28d1:	48 83 45 b8 08       	addq   $0x8,-0x48(%rbp)
    28d6:	48 8b 45 a8          	mov    -0x58(%rbp),%rax
    28da:	48 89 c7             	mov    %rax,%rdi
    28dd:	e8 50 f9 ff ff       	call   2232 <_ZNSt12_Vector_baseImSaImEE19_M_get_Tp_allocatorEv>
    28e2:	48 89 c3             	mov    %rax,%rbx
    28e5:	48 8d 45 a0          	lea    -0x60(%rbp),%rax
    28e9:	48 89 c7             	mov    %rax,%rdi
    28ec:	e8 6f 01 00 00       	call   2a60 <_ZNK9__gnu_cxx17__normal_iteratorIPmSt6vectorImSaImEEE4baseEv>
    28f1:	48 8b 00             	mov    (%rax),%rax
    28f4:	48 8b 55 b8          	mov    -0x48(%rbp),%rdx
    28f8:	48 8b 75 d0          	mov    -0x30(%rbp),%rsi
    28fc:	48 89 d9             	mov    %rbx,%rcx
    28ff:	48 89 c7             	mov    %rax,%rdi
    2902:	e8 e2 06 00 00       	call   2fe9 <_ZSt34__uninitialized_move_if_noexcept_aIPmS0_SaImEET0_T_S3_S2_RT1_>
    2907:	48 89 45 b8          	mov    %rax,-0x48(%rbp)
    290b:	e8 f3 fd ff ff       	call   2703 <_ZNSt6vectorImSaImEE15_S_use_relocateEv>
    2910:	83 f0 01             	xor    $0x1,%eax
    2913:	84 c0                	test   %al,%al
    2915:	74 22                	je     2939 <_ZNSt6vectorImSaImEE17_M_realloc_insertIJRKmEEEvN9__gnu_cxx17__normal_iteratorIPmS1_EEDpOT_+0x1f1>
    2917:	48 8b 45 a8          	mov    -0x58(%rbp),%rax
    291b:	48 89 c7             	mov    %rax,%rdi
    291e:	e8 0f f9 ff ff       	call   2232 <_ZNSt12_Vector_baseImSaImEE19_M_get_Tp_allocatorEv>
    2923:	48 89 c2             	mov    %rax,%rdx
    2926:	48 8b 4d d0          	mov    -0x30(%rbp),%rcx
    292a:	48 8b 45 c8          	mov    -0x38(%rbp),%rax
    292e:	48 89 ce             	mov    %rcx,%rsi
    2931:	48 89 c7             	mov    %rax,%rdi
    2934:	e8 0b f9 ff ff       	call   2244 <_ZSt8_DestroyIPmmEvT_S1_RSaIT0_E>
    2939:	48 8b 45 a8          	mov    -0x58(%rbp),%rax
    293d:	48 8b 55 a8          	mov    -0x58(%rbp),%rdx
    2941:	48 8b 52 10          	mov    0x10(%rdx),%rdx
    2945:	48 2b 55 c8          	sub    -0x38(%rbp),%rdx
    2949:	48 c1 fa 03          	sar    $0x3,%rdx
    294d:	48 8b 4d c8          	mov    -0x38(%rbp),%rcx
    2951:	48 89 ce             	mov    %rcx,%rsi
    2954:	48 89 c7             	mov    %rax,%rdi
    2957:	e8 9c f8 ff ff       	call   21f8 <_ZNSt12_Vector_baseImSaImEE13_M_deallocateEPmm>
    295c:	48 8b 45 a8          	mov    -0x58(%rbp),%rax
    2960:	48 8b 55 e0          	mov    -0x20(%rbp),%rdx
    2964:	48 89 10             	mov    %rdx,(%rax)
    2967:	48 8b 45 a8          	mov    -0x58(%rbp),%rax
    296b:	48 8b 55 b8          	mov    -0x48(%rbp),%rdx
    296f:	48 89 50 08          	mov    %rdx,0x8(%rax)
    2973:	48 8b 45 c0          	mov    -0x40(%rbp),%rax
    2977:	48 8d 14 c5 00 00 00 	lea    0x0(,%rax,8),%rdx
    297e:	00 
    297f:	48 8b 45 e0          	mov    -0x20(%rbp),%rax
    2983:	48 01 c2             	add    %rax,%rdx
    2986:	48 8b 45 a8          	mov    -0x58(%rbp),%rax
    298a:	48 89 50 10          	mov    %rdx,0x10(%rax)
    298e:	90                   	nop
    298f:	48 8b 45 e8          	mov    -0x18(%rbp),%rax
    2993:	64 48 2b 04 25 28 00 	sub    %fs:0x28,%rax
    299a:	00 00 
    299c:	0f 84 96 00 00 00    	je     2a38 <_ZNSt6vectorImSaImEE17_M_realloc_insertIJRKmEEEvN9__gnu_cxx17__normal_iteratorIPmS1_EEDpOT_+0x2f0>
    29a2:	e9 8c 00 00 00       	jmp    2a33 <_ZNSt6vectorImSaImEE17_M_realloc_insertIJRKmEEEvN9__gnu_cxx17__normal_iteratorIPmS1_EEDpOT_+0x2eb>
    29a7:	f3 0f 1e fa          	endbr64 
    29ab:	48 89 c7             	mov    %rax,%rdi
    29ae:	e8 6d e8 ff ff       	call   1220 <__cxa_begin_catch@plt>
    29b3:	48 83 7d b8 00       	cmpq   $0x0,-0x48(%rbp)
    29b8:	75 24                	jne    29de <_ZNSt6vectorImSaImEE17_M_realloc_insertIJRKmEEEvN9__gnu_cxx17__normal_iteratorIPmS1_EEDpOT_+0x296>
    29ba:	48 8b 45 d8          	mov    -0x28(%rbp),%rax
    29be:	48 8d 14 c5 00 00 00 	lea    0x0(,%rax,8),%rdx
    29c5:	00 
    29c6:	48 8b 45 e0          	mov    -0x20(%rbp),%rax
    29ca:	48 01 c2             	add    %rax,%rdx
    29cd:	48 8b 45 a8          	mov    -0x58(%rbp),%rax
    29d1:	48 89 d6             	mov    %rdx,%rsi
    29d4:	48 89 c7             	mov    %rax,%rdi
    29d7:	e8 64 06 00 00       	call   3040 <_ZNSt16allocator_traitsISaImEE7destroyImEEvRS0_PT_>
    29dc:	eb 22                	jmp    2a00 <_ZNSt6vectorImSaImEE17_M_realloc_insertIJRKmEEEvN9__gnu_cxx17__normal_iteratorIPmS1_EEDpOT_+0x2b8>
    29de:	48 8b 45 a8          	mov    -0x58(%rbp),%rax
    29e2:	48 89 c7             	mov    %rax,%rdi
    29e5:	e8 48 f8 ff ff       	call   2232 <_ZNSt12_Vector_baseImSaImEE19_M_get_Tp_allocatorEv>
    29ea:	48 89 c2             	mov    %rax,%rdx
    29ed:	48 8b 4d b8          	mov    -0x48(%rbp),%rcx
    29f1:	48 8b 45 e0          	mov    -0x20(%rbp),%rax
    29f5:	48 89 ce             	mov    %rcx,%rsi
    29f8:	48 89 c7             	mov    %rax,%rdi
    29fb:	e8 44 f8 ff ff       	call   2244 <_ZSt8_DestroyIPmmEvT_S1_RSaIT0_E>
    2a00:	48 8b 45 a8          	mov    -0x58(%rbp),%rax
    2a04:	48 8b 55 c0          	mov    -0x40(%rbp),%rdx
    2a08:	48 8b 4d e0          	mov    -0x20(%rbp),%rcx
    2a0c:	48 89 ce             	mov    %rcx,%rsi
    2a0f:	48 89 c7             	mov    %rax,%rdi
    2a12:	e8 e1 f7 ff ff       	call   21f8 <_ZNSt12_Vector_baseImSaImEE13_M_deallocateEPmm>
    2a17:	e8 04 e9 ff ff       	call   1320 <__cxa_rethrow@plt>
    2a1c:	f3 0f 1e fa          	endbr64 
    2a20:	48 89 c3             	mov    %rax,%rbx
    2a23:	e8 28 e9 ff ff       	call   1350 <__cxa_end_catch@plt>
    2a28:	48 89 d8             	mov    %rbx,%rax
    2a2b:	48 89 c7             	mov    %rax,%rdi
    2a2e:	e8 2d e9 ff ff       	call   1360 <_Unwind_Resume@plt>
    2a33:	e8 a8 e8 ff ff       	call   12e0 <__stack_chk_fail@plt>
    2a38:	48 8b 5d f8          	mov    -0x8(%rbp),%rbx
    2a3c:	c9                   	leave  
    2a3d:	c3                   	ret    

0000000000002a3e <_ZN9__gnu_cxx17__normal_iteratorIPmSt6vectorImSaImEEEC1ERKS1_>:
    2a3e:	f3 0f 1e fa          	endbr64 
    2a42:	55                   	push   %rbp
    2a43:	48 89 e5             	mov    %rsp,%rbp
    2a46:	48 89 7d f8          	mov    %rdi,-0x8(%rbp)
    2a4a:	48 89 75 f0          	mov    %rsi,-0x10(%rbp)
    2a4e:	48 8b 45 f0          	mov    -0x10(%rbp),%rax
    2a52:	48 8b 10             	mov    (%rax),%rdx
    2a55:	48 8b 45 f8          	mov    -0x8(%rbp),%rax
    2a59:	48 89 10             	mov    %rdx,(%rax)
    2a5c:	90                   	nop
    2a5d:	5d                   	pop    %rbp
    2a5e:	c3                   	ret    
    2a5f:	90                   	nop

0000000000002a60 <_ZNK9__gnu_cxx17__normal_iteratorIPmSt6vectorImSaImEEE4baseEv>:
    2a60:	f3 0f 1e fa          	endbr64 
    2a64:	55                   	push   %rbp
    2a65:	48 89 e5             	mov    %rsp,%rbp
    2a68:	48 89 7d f8          	mov    %rdi,-0x8(%rbp)
    2a6c:	48 8b 45 f8          	mov    -0x8(%rbp),%rax
    2a70:	5d                   	pop    %rbp
    2a71:	c3                   	ret    

0000000000002a72 <_ZN9__gnu_cxx17__normal_iteratorIPP10ThreadDataSt6vectorIS2_SaIS2_EEEC1ERKS3_>:
    2a72:	f3 0f 1e fa          	endbr64 
    2a76:	55                   	push   %rbp
    2a77:	48 89 e5             	mov    %rsp,%rbp
    2a7a:	48 89 7d f8          	mov    %rdi,-0x8(%rbp)
    2a7e:	48 89 75 f0          	mov    %rsi,-0x10(%rbp)
    2a82:	48 8b 45 f0          	mov    -0x10(%rbp),%rax
    2a86:	48 8b 10             	mov    (%rax),%rdx
    2a89:	48 8b 45 f8          	mov    -0x8(%rbp),%rax
    2a8d:	48 89 10             	mov    %rdx,(%rax)
    2a90:	90                   	nop
    2a91:	5d                   	pop    %rbp
    2a92:	c3                   	ret    
    2a93:	90                   	nop

0000000000002a94 <_ZNK9__gnu_cxx17__normal_iteratorIPP10ThreadDataSt6vectorIS2_SaIS2_EEE4baseEv>:
    2a94:	f3 0f 1e fa          	endbr64 
    2a98:	55                   	push   %rbp
    2a99:	48 89 e5             	mov    %rsp,%rbp
    2a9c:	48 89 7d f8          	mov    %rdi,-0x8(%rbp)
    2aa0:	48 8b 45 f8          	mov    -0x8(%rbp),%rax
    2aa4:	5d                   	pop    %rbp
    2aa5:	c3                   	ret    

0000000000002aa6 <_ZN9__gnu_cxx13new_allocatorImEC1Ev>:
    2aa6:	f3 0f 1e fa          	endbr64 
    2aaa:	55                   	push   %rbp
    2aab:	48 89 e5             	mov    %rsp,%rbp
    2aae:	48 89 7d f8          	mov    %rdi,-0x8(%rbp)
    2ab2:	90                   	nop
    2ab3:	5d                   	pop    %rbp
    2ab4:	c3                   	ret    

0000000000002ab5 <_ZNSt16allocator_traitsISaImEE10deallocateERS0_Pmm>:
    2ab5:	f3 0f 1e fa          	endbr64 
    2ab9:	55                   	push   %rbp
    2aba:	48 89 e5             	mov    %rsp,%rbp
    2abd:	48 83 ec 20          	sub    $0x20,%rsp
    2ac1:	48 89 7d f8          	mov    %rdi,-0x8(%rbp)
    2ac5:	48 89 75 f0          	mov    %rsi,-0x10(%rbp)
    2ac9:	48 89 55 e8          	mov    %rdx,-0x18(%rbp)
    2acd:	48 8b 55 e8          	mov    -0x18(%rbp),%rdx
    2ad1:	48 8b 4d f0          	mov    -0x10(%rbp),%rcx
    2ad5:	48 8b 45 f8          	mov    -0x8(%rbp),%rax
    2ad9:	48 89 ce             	mov    %rcx,%rsi
    2adc:	48 89 c7             	mov    %rax,%rdi
    2adf:	e8 86 05 00 00       	call   306a <_ZN9__gnu_cxx13new_allocatorImE10deallocateEPmm>
    2ae4:	90                   	nop
    2ae5:	c9                   	leave  
    2ae6:	c3                   	ret    

0000000000002ae7 <_ZSt8_DestroyIPmEvT_S1_>:
    2ae7:	f3 0f 1e fa          	endbr64 
    2aeb:	55                   	push   %rbp
    2aec:	48 89 e5             	mov    %rsp,%rbp
    2aef:	48 83 ec 10          	sub    $0x10,%rsp
    2af3:	48 89 7d f8          	mov    %rdi,-0x8(%rbp)
    2af7:	48 89 75 f0          	mov    %rsi,-0x10(%rbp)
    2afb:	48 8b 55 f0          	mov    -0x10(%rbp),%rdx
    2aff:	48 8b 45 f8          	mov    -0x8(%rbp),%rax
    2b03:	48 89 d6             	mov    %rdx,%rsi
    2b06:	48 89 c7             	mov    %rax,%rdi
    2b09:	e8 83 05 00 00       	call   3091 <_ZNSt12_Destroy_auxILb1EE9__destroyIPmEEvT_S3_>
    2b0e:	90                   	nop
    2b0f:	c9                   	leave  
    2b10:	c3                   	ret    
    2b11:	90                   	nop

0000000000002b12 <_ZN9__gnu_cxx13new_allocatorIP10ThreadDataEC1Ev>:
    2b12:	f3 0f 1e fa          	endbr64 
    2b16:	55                   	push   %rbp
    2b17:	48 89 e5             	mov    %rsp,%rbp
    2b1a:	48 89 7d f8          	mov    %rdi,-0x8(%rbp)
    2b1e:	90                   	nop
    2b1f:	5d                   	pop    %rbp
    2b20:	c3                   	ret    

0000000000002b21 <_ZNSt16allocator_traitsISaIP10ThreadDataEE10deallocateERS2_PS1_m>:
    2b21:	f3 0f 1e fa          	endbr64 
    2b25:	55                   	push   %rbp
    2b26:	48 89 e5             	mov    %rsp,%rbp
    2b29:	48 83 ec 20          	sub    $0x20,%rsp
    2b2d:	48 89 7d f8          	mov    %rdi,-0x8(%rbp)
    2b31:	48 89 75 f0          	mov    %rsi,-0x10(%rbp)
    2b35:	48 89 55 e8          	mov    %rdx,-0x18(%rbp)
    2b39:	48 8b 55 e8          	mov    -0x18(%rbp),%rdx
    2b3d:	48 8b 4d f0          	mov    -0x10(%rbp),%rcx
    2b41:	48 8b 45 f8          	mov    -0x8(%rbp),%rax
    2b45:	48 89 ce             	mov    %rcx,%rsi
    2b48:	48 89 c7             	mov    %rax,%rdi
    2b4b:	e8 54 05 00 00       	call   30a4 <_ZN9__gnu_cxx13new_allocatorIP10ThreadDataE10deallocateEPS2_m>
    2b50:	90                   	nop
    2b51:	c9                   	leave  
    2b52:	c3                   	ret    

0000000000002b53 <_ZSt8_DestroyIPP10ThreadDataEvT_S3_>:
    2b53:	f3 0f 1e fa          	endbr64 
    2b57:	55                   	push   %rbp
    2b58:	48 89 e5             	mov    %rsp,%rbp
    2b5b:	48 83 ec 10          	sub    $0x10,%rsp
    2b5f:	48 89 7d f8          	mov    %rdi,-0x8(%rbp)
    2b63:	48 89 75 f0          	mov    %rsi,-0x10(%rbp)
    2b67:	48 8b 55 f0          	mov    -0x10(%rbp),%rdx
    2b6b:	48 8b 45 f8          	mov    -0x8(%rbp),%rax
    2b6f:	48 89 d6             	mov    %rdx,%rsi
    2b72:	48 89 c7             	mov    %rax,%rdi
    2b75:	e8 51 05 00 00       	call   30cb <_ZNSt12_Destroy_auxILb1EE9__destroyIPP10ThreadDataEEvT_S5_>
    2b7a:	90                   	nop
    2b7b:	c9                   	leave  
    2b7c:	c3                   	ret    

0000000000002b7d <_ZSt7forwardIRKP10ThreadDataEOT_RNSt16remove_referenceIS4_E4typeE>:
    2b7d:	f3 0f 1e fa          	endbr64 
    2b81:	55                   	push   %rbp
    2b82:	48 89 e5             	mov    %rsp,%rbp
    2b85:	48 89 7d f8          	mov    %rdi,-0x8(%rbp)
    2b89:	48 8b 45 f8          	mov    -0x8(%rbp),%rax
    2b8d:	5d                   	pop    %rbp
    2b8e:	c3                   	ret    
    2b8f:	90                   	nop

0000000000002b90 <_ZN9__gnu_cxx13new_allocatorIP10ThreadDataE9constructIS2_JRKS2_EEEvPT_DpOT0_>:
    2b90:	f3 0f 1e fa          	endbr64 
    2b94:	55                   	push   %rbp
    2b95:	48 89 e5             	mov    %rsp,%rbp
    2b98:	53                   	push   %rbx
    2b99:	48 83 ec 28          	sub    $0x28,%rsp
    2b9d:	48 89 7d e8          	mov    %rdi,-0x18(%rbp)
    2ba1:	48 89 75 e0          	mov    %rsi,-0x20(%rbp)
    2ba5:	48 89 55 d8          	mov    %rdx,-0x28(%rbp)
    2ba9:	48 8b 45 d8          	mov    -0x28(%rbp),%rax
    2bad:	48 89 c7             	mov    %rax,%rdi
    2bb0:	e8 c8 ff ff ff       	call   2b7d <_ZSt7forwardIRKP10ThreadDataEOT_RNSt16remove_referenceIS4_E4typeE>
    2bb5:	48 8b 18             	mov    (%rax),%rbx
    2bb8:	48 8b 45 e0          	mov    -0x20(%rbp),%rax
    2bbc:	48 89 c6             	mov    %rax,%rsi
    2bbf:	bf 08 00 00 00       	mov    $0x8,%edi
    2bc4:	e8 ff eb ff ff       	call   17c8 <_ZnwmPv>
    2bc9:	48 89 18             	mov    %rbx,(%rax)
    2bcc:	90                   	nop
    2bcd:	48 8b 5d f8          	mov    -0x8(%rbp),%rbx
    2bd1:	c9                   	leave  
    2bd2:	c3                   	ret    
    2bd3:	90                   	nop

0000000000002bd4 <_ZNKSt6vectorIP10ThreadDataSaIS1_EE12_M_check_lenEmPKc>:
    2bd4:	f3 0f 1e fa          	endbr64 
    2bd8:	55                   	push   %rbp
    2bd9:	48 89 e5             	mov    %rsp,%rbp
    2bdc:	53                   	push   %rbx
    2bdd:	48 83 ec 48          	sub    $0x48,%rsp
    2be1:	48 89 7d c8          	mov    %rdi,-0x38(%rbp)
    2be5:	48 89 75 c0          	mov    %rsi,-0x40(%rbp)
    2be9:	48 89 55 b8          	mov    %rdx,-0x48(%rbp)
    2bed:	64 48 8b 04 25 28 00 	mov    %fs:0x28,%rax
    2bf4:	00 00 
    2bf6:	48 89 45 e8          	mov    %rax,-0x18(%rbp)
    2bfa:	31 c0                	xor    %eax,%eax
    2bfc:	48 8b 45 c8          	mov    -0x38(%rbp),%rax
    2c00:	48 89 c7             	mov    %rax,%rdi
    2c03:	e8 d6 04 00 00       	call   30de <_ZNKSt6vectorIP10ThreadDataSaIS1_EE8max_sizeEv>
    2c08:	48 89 c3             	mov    %rax,%rbx
    2c0b:	48 8b 45 c8          	mov    -0x38(%rbp),%rax
    2c0f:	48 89 c7             	mov    %rax,%rdi
    2c12:	e8 ed 04 00 00       	call   3104 <_ZNKSt6vectorIP10ThreadDataSaIS1_EE4sizeEv>
    2c17:	48 29 c3             	sub    %rax,%rbx
    2c1a:	48 89 da             	mov    %rbx,%rdx
    2c1d:	48 8b 45 c0          	mov    -0x40(%rbp),%rax
    2c21:	48 39 c2             	cmp    %rax,%rdx
    2c24:	0f 92 c0             	setb   %al
    2c27:	84 c0                	test   %al,%al
    2c29:	74 0c                	je     2c37 <_ZNKSt6vectorIP10ThreadDataSaIS1_EE12_M_check_lenEmPKc+0x63>
    2c2b:	48 8b 45 b8          	mov    -0x48(%rbp),%rax
    2c2f:	48 89 c7             	mov    %rax,%rdi
    2c32:	e8 09 e6 ff ff       	call   1240 <_ZSt20__throw_length_errorPKc@plt>
    2c37:	48 8b 45 c8          	mov    -0x38(%rbp),%rax
    2c3b:	48 89 c7             	mov    %rax,%rdi
    2c3e:	e8 c1 04 00 00       	call   3104 <_ZNKSt6vectorIP10ThreadDataSaIS1_EE4sizeEv>
    2c43:	48 89 c3             	mov    %rax,%rbx
    2c46:	48 8b 45 c8          	mov    -0x38(%rbp),%rax
    2c4a:	48 89 c7             	mov    %rax,%rdi
    2c4d:	e8 b2 04 00 00       	call   3104 <_ZNKSt6vectorIP10ThreadDataSaIS1_EE4sizeEv>
    2c52:	48 89 45 d8          	mov    %rax,-0x28(%rbp)
    2c56:	48 8d 55 c0          	lea    -0x40(%rbp),%rdx
    2c5a:	48 8d 45 d8          	lea    -0x28(%rbp),%rax
    2c5e:	48 89 d6             	mov    %rdx,%rsi
    2c61:	48 89 c7             	mov    %rax,%rdi
    2c64:	e8 c2 04 00 00       	call   312b <_ZSt3maxImERKT_S2_S2_>
    2c69:	48 8b 00             	mov    (%rax),%rax
    2c6c:	48 01 d8             	add    %rbx,%rax
    2c6f:	48 89 45 e0          	mov    %rax,-0x20(%rbp)
    2c73:	48 8b 45 c8          	mov    -0x38(%rbp),%rax
    2c77:	48 89 c7             	mov    %rax,%rdi
    2c7a:	e8 85 04 00 00       	call   3104 <_ZNKSt6vectorIP10ThreadDataSaIS1_EE4sizeEv>
    2c7f:	48 39 45 e0          	cmp    %rax,-0x20(%rbp)
    2c83:	72 12                	jb     2c97 <_ZNKSt6vectorIP10ThreadDataSaIS1_EE12_M_check_lenEmPKc+0xc3>
    2c85:	48 8b 45 c8          	mov    -0x38(%rbp),%rax
    2c89:	48 89 c7             	mov    %rax,%rdi
    2c8c:	e8 4d 04 00 00       	call   30de <_ZNKSt6vectorIP10ThreadDataSaIS1_EE8max_sizeEv>
    2c91:	48 39 45 e0          	cmp    %rax,-0x20(%rbp)
    2c95:	76 0e                	jbe    2ca5 <_ZNKSt6vectorIP10ThreadDataSaIS1_EE12_M_check_lenEmPKc+0xd1>
    2c97:	48 8b 45 c8          	mov    -0x38(%rbp),%rax
    2c9b:	48 89 c7             	mov    %rax,%rdi
    2c9e:	e8 3b 04 00 00       	call   30de <_ZNKSt6vectorIP10ThreadDataSaIS1_EE8max_sizeEv>
    2ca3:	eb 04                	jmp    2ca9 <_ZNKSt6vectorIP10ThreadDataSaIS1_EE12_M_check_lenEmPKc+0xd5>
    2ca5:	48 8b 45 e0          	mov    -0x20(%rbp),%rax
    2ca9:	48 8b 55 e8          	mov    -0x18(%rbp),%rdx
    2cad:	64 48 2b 14 25 28 00 	sub    %fs:0x28,%rdx
    2cb4:	00 00 
    2cb6:	74 05                	je     2cbd <_ZNKSt6vectorIP10ThreadDataSaIS1_EE12_M_check_lenEmPKc+0xe9>
    2cb8:	e8 23 e6 ff ff       	call   12e0 <__stack_chk_fail@plt>
    2cbd:	48 8b 5d f8          	mov    -0x8(%rbp),%rbx
    2cc1:	c9                   	leave  
    2cc2:	c3                   	ret    

0000000000002cc3 <_ZN9__gnu_cxxmiIPP10ThreadDataSt6vectorIS2_SaIS2_EEEENS_17__normal_iteratorIT_T0_E15difference_typeERKSA_SD_>:
    2cc3:	f3 0f 1e fa          	endbr64 
    2cc7:	55                   	push   %rbp
    2cc8:	48 89 e5             	mov    %rsp,%rbp
    2ccb:	53                   	push   %rbx
    2ccc:	48 83 ec 18          	sub    $0x18,%rsp
    2cd0:	48 89 7d e8          	mov    %rdi,-0x18(%rbp)
    2cd4:	48 89 75 e0          	mov    %rsi,-0x20(%rbp)
    2cd8:	48 8b 45 e8          	mov    -0x18(%rbp),%rax
    2cdc:	48 89 c7             	mov    %rax,%rdi
    2cdf:	e8 b0 fd ff ff       	call   2a94 <_ZNK9__gnu_cxx17__normal_iteratorIPP10ThreadDataSt6vectorIS2_SaIS2_EEE4baseEv>
    2ce4:	48 8b 18             	mov    (%rax),%rbx
    2ce7:	48 8b 45 e0          	mov    -0x20(%rbp),%rax
    2ceb:	48 89 c7             	mov    %rax,%rdi
    2cee:	e8 a1 fd ff ff       	call   2a94 <_ZNK9__gnu_cxx17__normal_iteratorIPP10ThreadDataSt6vectorIS2_SaIS2_EEE4baseEv>
    2cf3:	48 8b 10             	mov    (%rax),%rdx
    2cf6:	48 89 d8             	mov    %rbx,%rax
    2cf9:	48 29 d0             	sub    %rdx,%rax
    2cfc:	48 c1 f8 03          	sar    $0x3,%rax
    2d00:	48 8b 5d f8          	mov    -0x8(%rbp),%rbx
    2d04:	c9                   	leave  
    2d05:	c3                   	ret    

0000000000002d06 <_ZNSt12_Vector_baseIP10ThreadDataSaIS1_EE11_M_allocateEm>:
    2d06:	f3 0f 1e fa          	endbr64 
    2d0a:	55                   	push   %rbp
    2d0b:	48 89 e5             	mov    %rsp,%rbp
    2d0e:	48 83 ec 10          	sub    $0x10,%rsp
    2d12:	48 89 7d f8          	mov    %rdi,-0x8(%rbp)
    2d16:	48 89 75 f0          	mov    %rsi,-0x10(%rbp)
    2d1a:	48 83 7d f0 00       	cmpq   $0x0,-0x10(%rbp)
    2d1f:	74 15                	je     2d36 <_ZNSt12_Vector_baseIP10ThreadDataSaIS1_EE11_M_allocateEm+0x30>
    2d21:	48 8b 45 f8          	mov    -0x8(%rbp),%rax
    2d25:	48 8b 55 f0          	mov    -0x10(%rbp),%rdx
    2d29:	48 89 d6             	mov    %rdx,%rsi
    2d2c:	48 89 c7             	mov    %rax,%rdi
    2d2f:	e8 26 04 00 00       	call   315a <_ZNSt16allocator_traitsISaIP10ThreadDataEE8allocateERS2_m>
    2d34:	eb 05                	jmp    2d3b <_ZNSt12_Vector_baseIP10ThreadDataSaIS1_EE11_M_allocateEm+0x35>
    2d36:	b8 00 00 00 00       	mov    $0x0,%eax
    2d3b:	c9                   	leave  
    2d3c:	c3                   	ret    

0000000000002d3d <_ZNSt6vectorIP10ThreadDataSaIS1_EE11_S_relocateEPS1_S4_S4_RS2_>:
    2d3d:	f3 0f 1e fa          	endbr64 
    2d41:	55                   	push   %rbp
    2d42:	48 89 e5             	mov    %rsp,%rbp
    2d45:	48 83 ec 20          	sub    $0x20,%rsp
    2d49:	48 89 7d f8          	mov    %rdi,-0x8(%rbp)
    2d4d:	48 89 75 f0          	mov    %rsi,-0x10(%rbp)
    2d51:	48 89 55 e8          	mov    %rdx,-0x18(%rbp)
    2d55:	48 89 4d e0          	mov    %rcx,-0x20(%rbp)
    2d59:	48 8b 4d e0          	mov    -0x20(%rbp),%rcx
    2d5d:	48 8b 55 e8          	mov    -0x18(%rbp),%rdx
    2d61:	48 8b 75 f0          	mov    -0x10(%rbp),%rsi
    2d65:	48 8b 45 f8          	mov    -0x8(%rbp),%rax
    2d69:	48 89 c7             	mov    %rax,%rdi
    2d6c:	e8 17 04 00 00       	call   3188 <_ZNSt6vectorIP10ThreadDataSaIS1_EE14_S_do_relocateEPS1_S4_S4_RS2_St17integral_constantIbLb1EE>
    2d71:	c9                   	leave  
    2d72:	c3                   	ret    

0000000000002d73 <_ZSt34__uninitialized_move_if_noexcept_aIPP10ThreadDataS2_SaIS1_EET0_T_S5_S4_RT1_>:
    2d73:	f3 0f 1e fa          	endbr64 
    2d77:	55                   	push   %rbp
    2d78:	48 89 e5             	mov    %rsp,%rbp
    2d7b:	53                   	push   %rbx
    2d7c:	48 83 ec 28          	sub    $0x28,%rsp
    2d80:	48 89 7d e8          	mov    %rdi,-0x18(%rbp)
    2d84:	48 89 75 e0          	mov    %rsi,-0x20(%rbp)
    2d88:	48 89 55 d8          	mov    %rdx,-0x28(%rbp)
    2d8c:	48 89 4d d0          	mov    %rcx,-0x30(%rbp)
    2d90:	48 8b 45 e0          	mov    -0x20(%rbp),%rax
    2d94:	48 89 c7             	mov    %rax,%rdi
    2d97:	e8 22 04 00 00       	call   31be <_ZSt32__make_move_if_noexcept_iteratorIP10ThreadDataSt13move_iteratorIPS1_EET0_PT_>
    2d9c:	48 89 c3             	mov    %rax,%rbx
    2d9f:	48 8b 45 e8          	mov    -0x18(%rbp),%rax
    2da3:	48 89 c7             	mov    %rax,%rdi
    2da6:	e8 13 04 00 00       	call   31be <_ZSt32__make_move_if_noexcept_iteratorIP10ThreadDataSt13move_iteratorIPS1_EET0_PT_>
    2dab:	48 89 c7             	mov    %rax,%rdi
    2dae:	48 8b 55 d0          	mov    -0x30(%rbp),%rdx
    2db2:	48 8b 45 d8          	mov    -0x28(%rbp),%rax
    2db6:	48 89 d1             	mov    %rdx,%rcx
    2db9:	48 89 c2             	mov    %rax,%rdx
    2dbc:	48 89 de             	mov    %rbx,%rsi
    2dbf:	e8 46 04 00 00       	call   320a <_ZSt22__uninitialized_copy_aISt13move_iteratorIPP10ThreadDataES3_S2_ET0_T_S6_S5_RSaIT1_E>
    2dc4:	48 8b 5d f8          	mov    -0x8(%rbp),%rbx
    2dc8:	c9                   	leave  
    2dc9:	c3                   	ret    

0000000000002dca <_ZNSt16allocator_traitsISaIP10ThreadDataEE7destroyIS1_EEvRS2_PT_>:
    2dca:	f3 0f 1e fa          	endbr64 
    2dce:	55                   	push   %rbp
    2dcf:	48 89 e5             	mov    %rsp,%rbp
    2dd2:	48 83 ec 10          	sub    $0x10,%rsp
    2dd6:	48 89 7d f8          	mov    %rdi,-0x8(%rbp)
    2dda:	48 89 75 f0          	mov    %rsi,-0x10(%rbp)
    2dde:	48 8b 55 f0          	mov    -0x10(%rbp),%rdx
    2de2:	48 8b 45 f8          	mov    -0x8(%rbp),%rax
    2de6:	48 89 d6             	mov    %rdx,%rsi
    2de9:	48 89 c7             	mov    %rax,%rdi
    2dec:	e8 4f 04 00 00       	call   3240 <_ZN9__gnu_cxx13new_allocatorIP10ThreadDataE7destroyIS2_EEvPT_>
    2df1:	90                   	nop
    2df2:	c9                   	leave  
    2df3:	c3                   	ret    

0000000000002df4 <_ZSt7forwardIRKmEOT_RNSt16remove_referenceIS2_E4typeE>:
    2df4:	f3 0f 1e fa          	endbr64 
    2df8:	55                   	push   %rbp
    2df9:	48 89 e5             	mov    %rsp,%rbp
    2dfc:	48 89 7d f8          	mov    %rdi,-0x8(%rbp)
    2e00:	48 8b 45 f8          	mov    -0x8(%rbp),%rax
    2e04:	5d                   	pop    %rbp
    2e05:	c3                   	ret    

0000000000002e06 <_ZN9__gnu_cxx13new_allocatorImE9constructImJRKmEEEvPT_DpOT0_>:
    2e06:	f3 0f 1e fa          	endbr64 
    2e0a:	55                   	push   %rbp
    2e0b:	48 89 e5             	mov    %rsp,%rbp
    2e0e:	53                   	push   %rbx
    2e0f:	48 83 ec 28          	sub    $0x28,%rsp
    2e13:	48 89 7d e8          	mov    %rdi,-0x18(%rbp)
    2e17:	48 89 75 e0          	mov    %rsi,-0x20(%rbp)
    2e1b:	48 89 55 d8          	mov    %rdx,-0x28(%rbp)
    2e1f:	48 8b 45 d8          	mov    -0x28(%rbp),%rax
    2e23:	48 89 c7             	mov    %rax,%rdi
    2e26:	e8 c9 ff ff ff       	call   2df4 <_ZSt7forwardIRKmEOT_RNSt16remove_referenceIS2_E4typeE>
    2e2b:	48 8b 18             	mov    (%rax),%rbx
    2e2e:	48 8b 45 e0          	mov    -0x20(%rbp),%rax
    2e32:	48 89 c6             	mov    %rax,%rsi
    2e35:	bf 08 00 00 00       	mov    $0x8,%edi
    2e3a:	e8 89 e9 ff ff       	call   17c8 <_ZnwmPv>
    2e3f:	48 89 18             	mov    %rbx,(%rax)
    2e42:	90                   	nop
    2e43:	48 8b 5d f8          	mov    -0x8(%rbp),%rbx
    2e47:	c9                   	leave  
    2e48:	c3                   	ret    
    2e49:	90                   	nop

0000000000002e4a <_ZNKSt6vectorImSaImEE12_M_check_lenEmPKc>:
    2e4a:	f3 0f 1e fa          	endbr64 
    2e4e:	55                   	push   %rbp
    2e4f:	48 89 e5             	mov    %rsp,%rbp
    2e52:	53                   	push   %rbx
    2e53:	48 83 ec 48          	sub    $0x48,%rsp
    2e57:	48 89 7d c8          	mov    %rdi,-0x38(%rbp)
    2e5b:	48 89 75 c0          	mov    %rsi,-0x40(%rbp)
    2e5f:	48 89 55 b8          	mov    %rdx,-0x48(%rbp)
    2e63:	64 48 8b 04 25 28 00 	mov    %fs:0x28,%rax
    2e6a:	00 00 
    2e6c:	48 89 45 e8          	mov    %rax,-0x18(%rbp)
    2e70:	31 c0                	xor    %eax,%eax
    2e72:	48 8b 45 c8          	mov    -0x38(%rbp),%rax
    2e76:	48 89 c7             	mov    %rax,%rdi
    2e79:	e8 d6 03 00 00       	call   3254 <_ZNKSt6vectorImSaImEE8max_sizeEv>
    2e7e:	48 89 c3             	mov    %rax,%rbx
    2e81:	48 8b 45 c8          	mov    -0x38(%rbp),%rax
    2e85:	48 89 c7             	mov    %rax,%rdi
    2e88:	e8 ed 03 00 00       	call   327a <_ZNKSt6vectorImSaImEE4sizeEv>
    2e8d:	48 29 c3             	sub    %rax,%rbx
    2e90:	48 89 da             	mov    %rbx,%rdx
    2e93:	48 8b 45 c0          	mov    -0x40(%rbp),%rax
    2e97:	48 39 c2             	cmp    %rax,%rdx
    2e9a:	0f 92 c0             	setb   %al
    2e9d:	84 c0                	test   %al,%al
    2e9f:	74 0c                	je     2ead <_ZNKSt6vectorImSaImEE12_M_check_lenEmPKc+0x63>
    2ea1:	48 8b 45 b8          	mov    -0x48(%rbp),%rax
    2ea5:	48 89 c7             	mov    %rax,%rdi
    2ea8:	e8 93 e3 ff ff       	call   1240 <_ZSt20__throw_length_errorPKc@plt>
    2ead:	48 8b 45 c8          	mov    -0x38(%rbp),%rax
    2eb1:	48 89 c7             	mov    %rax,%rdi
    2eb4:	e8 c1 03 00 00       	call   327a <_ZNKSt6vectorImSaImEE4sizeEv>
    2eb9:	48 89 c3             	mov    %rax,%rbx
    2ebc:	48 8b 45 c8          	mov    -0x38(%rbp),%rax
    2ec0:	48 89 c7             	mov    %rax,%rdi
    2ec3:	e8 b2 03 00 00       	call   327a <_ZNKSt6vectorImSaImEE4sizeEv>
    2ec8:	48 89 45 d8          	mov    %rax,-0x28(%rbp)
    2ecc:	48 8d 55 c0          	lea    -0x40(%rbp),%rdx
    2ed0:	48 8d 45 d8          	lea    -0x28(%rbp),%rax
    2ed4:	48 89 d6             	mov    %rdx,%rsi
    2ed7:	48 89 c7             	mov    %rax,%rdi
    2eda:	e8 4c 02 00 00       	call   312b <_ZSt3maxImERKT_S2_S2_>
    2edf:	48 8b 00             	mov    (%rax),%rax
    2ee2:	48 01 d8             	add    %rbx,%rax
    2ee5:	48 89 45 e0          	mov    %rax,-0x20(%rbp)
    2ee9:	48 8b 45 c8          	mov    -0x38(%rbp),%rax
    2eed:	48 89 c7             	mov    %rax,%rdi
    2ef0:	e8 85 03 00 00       	call   327a <_ZNKSt6vectorImSaImEE4sizeEv>
    2ef5:	48 39 45 e0          	cmp    %rax,-0x20(%rbp)
    2ef9:	72 12                	jb     2f0d <_ZNKSt6vectorImSaImEE12_M_check_lenEmPKc+0xc3>
    2efb:	48 8b 45 c8          	mov    -0x38(%rbp),%rax
    2eff:	48 89 c7             	mov    %rax,%rdi
    2f02:	e8 4d 03 00 00       	call   3254 <_ZNKSt6vectorImSaImEE8max_sizeEv>
    2f07:	48 39 45 e0          	cmp    %rax,-0x20(%rbp)
    2f0b:	76 0e                	jbe    2f1b <_ZNKSt6vectorImSaImEE12_M_check_lenEmPKc+0xd1>
    2f0d:	48 8b 45 c8          	mov    -0x38(%rbp),%rax
    2f11:	48 89 c7             	mov    %rax,%rdi
    2f14:	e8 3b 03 00 00       	call   3254 <_ZNKSt6vectorImSaImEE8max_sizeEv>
    2f19:	eb 04                	jmp    2f1f <_ZNKSt6vectorImSaImEE12_M_check_lenEmPKc+0xd5>
    2f1b:	48 8b 45 e0          	mov    -0x20(%rbp),%rax
    2f1f:	48 8b 55 e8          	mov    -0x18(%rbp),%rdx
    2f23:	64 48 2b 14 25 28 00 	sub    %fs:0x28,%rdx
    2f2a:	00 00 
    2f2c:	74 05                	je     2f33 <_ZNKSt6vectorImSaImEE12_M_check_lenEmPKc+0xe9>
    2f2e:	e8 ad e3 ff ff       	call   12e0 <__stack_chk_fail@plt>
    2f33:	48 8b 5d f8          	mov    -0x8(%rbp),%rbx
    2f37:	c9                   	leave  
    2f38:	c3                   	ret    

0000000000002f39 <_ZN9__gnu_cxxmiIPmSt6vectorImSaImEEEENS_17__normal_iteratorIT_T0_E15difference_typeERKS8_SB_>:
    2f39:	f3 0f 1e fa          	endbr64 
    2f3d:	55                   	push   %rbp
    2f3e:	48 89 e5             	mov    %rsp,%rbp
    2f41:	53                   	push   %rbx
    2f42:	48 83 ec 18          	sub    $0x18,%rsp
    2f46:	48 89 7d e8          	mov    %rdi,-0x18(%rbp)
    2f4a:	48 89 75 e0          	mov    %rsi,-0x20(%rbp)
    2f4e:	48 8b 45 e8          	mov    -0x18(%rbp),%rax
    2f52:	48 89 c7             	mov    %rax,%rdi
    2f55:	e8 06 fb ff ff       	call   2a60 <_ZNK9__gnu_cxx17__normal_iteratorIPmSt6vectorImSaImEEE4baseEv>
    2f5a:	48 8b 18             	mov    (%rax),%rbx
    2f5d:	48 8b 45 e0          	mov    -0x20(%rbp),%rax
    2f61:	48 89 c7             	mov    %rax,%rdi
    2f64:	e8 f7 fa ff ff       	call   2a60 <_ZNK9__gnu_cxx17__normal_iteratorIPmSt6vectorImSaImEEE4baseEv>
    2f69:	48 8b 10             	mov    (%rax),%rdx
    2f6c:	48 89 d8             	mov    %rbx,%rax
    2f6f:	48 29 d0             	sub    %rdx,%rax
    2f72:	48 c1 f8 03          	sar    $0x3,%rax
    2f76:	48 8b 5d f8          	mov    -0x8(%rbp),%rbx
    2f7a:	c9                   	leave  
    2f7b:	c3                   	ret    

0000000000002f7c <_ZNSt12_Vector_baseImSaImEE11_M_allocateEm>:
    2f7c:	f3 0f 1e fa          	endbr64 
    2f80:	55                   	push   %rbp
    2f81:	48 89 e5             	mov    %rsp,%rbp
    2f84:	48 83 ec 10          	sub    $0x10,%rsp
    2f88:	48 89 7d f8          	mov    %rdi,-0x8(%rbp)
    2f8c:	48 89 75 f0          	mov    %rsi,-0x10(%rbp)
    2f90:	48 83 7d f0 00       	cmpq   $0x0,-0x10(%rbp)
    2f95:	74 15                	je     2fac <_ZNSt12_Vector_baseImSaImEE11_M_allocateEm+0x30>
    2f97:	48 8b 45 f8          	mov    -0x8(%rbp),%rax
    2f9b:	48 8b 55 f0          	mov    -0x10(%rbp),%rdx
    2f9f:	48 89 d6             	mov    %rdx,%rsi
    2fa2:	48 89 c7             	mov    %rax,%rdi
    2fa5:	e8 f7 02 00 00       	call   32a1 <_ZNSt16allocator_traitsISaImEE8allocateERS0_m>
    2faa:	eb 05                	jmp    2fb1 <_ZNSt12_Vector_baseImSaImEE11_M_allocateEm+0x35>
    2fac:	b8 00 00 00 00       	mov    $0x0,%eax
    2fb1:	c9                   	leave  
    2fb2:	c3                   	ret    

0000000000002fb3 <_ZNSt6vectorImSaImEE11_S_relocateEPmS2_S2_RS0_>:
    2fb3:	f3 0f 1e fa          	endbr64 
    2fb7:	55                   	push   %rbp
    2fb8:	48 89 e5             	mov    %rsp,%rbp
    2fbb:	48 83 ec 20          	sub    $0x20,%rsp
    2fbf:	48 89 7d f8          	mov    %rdi,-0x8(%rbp)
    2fc3:	48 89 75 f0          	mov    %rsi,-0x10(%rbp)
    2fc7:	48 89 55 e8          	mov    %rdx,-0x18(%rbp)
    2fcb:	48 89 4d e0          	mov    %rcx,-0x20(%rbp)
    2fcf:	48 8b 4d e0          	mov    -0x20(%rbp),%rcx
    2fd3:	48 8b 55 e8          	mov    -0x18(%rbp),%rdx
    2fd7:	48 8b 75 f0          	mov    -0x10(%rbp),%rsi
    2fdb:	48 8b 45 f8          	mov    -0x8(%rbp),%rax
    2fdf:	48 89 c7             	mov    %rax,%rdi
    2fe2:	e8 e8 02 00 00       	call   32cf <_ZNSt6vectorImSaImEE14_S_do_relocateEPmS2_S2_RS0_St17integral_constantIbLb1EE>
    2fe7:	c9                   	leave  
    2fe8:	c3                   	ret    

0000000000002fe9 <_ZSt34__uninitialized_move_if_noexcept_aIPmS0_SaImEET0_T_S3_S2_RT1_>:
    2fe9:	f3 0f 1e fa          	endbr64 
    2fed:	55                   	push   %rbp
    2fee:	48 89 e5             	mov    %rsp,%rbp
    2ff1:	53                   	push   %rbx
    2ff2:	48 83 ec 28          	sub    $0x28,%rsp
    2ff6:	48 89 7d e8          	mov    %rdi,-0x18(%rbp)
    2ffa:	48 89 75 e0          	mov    %rsi,-0x20(%rbp)
    2ffe:	48 89 55 d8          	mov    %rdx,-0x28(%rbp)
    3002:	48 89 4d d0          	mov    %rcx,-0x30(%rbp)
    3006:	48 8b 45 e0          	mov    -0x20(%rbp),%rax
    300a:	48 89 c7             	mov    %rax,%rdi
    300d:	e8 f3 02 00 00       	call   3305 <_ZSt32__make_move_if_noexcept_iteratorImSt13move_iteratorIPmEET0_PT_>
    3012:	48 89 c3             	mov    %rax,%rbx
    3015:	48 8b 45 e8          	mov    -0x18(%rbp),%rax
    3019:	48 89 c7             	mov    %rax,%rdi
    301c:	e8 e4 02 00 00       	call   3305 <_ZSt32__make_move_if_noexcept_iteratorImSt13move_iteratorIPmEET0_PT_>
    3021:	48 89 c7             	mov    %rax,%rdi
    3024:	48 8b 55 d0          	mov    -0x30(%rbp),%rdx
    3028:	48 8b 45 d8          	mov    -0x28(%rbp),%rax
    302c:	48 89 d1             	mov    %rdx,%rcx
    302f:	48 89 c2             	mov    %rax,%rdx
    3032:	48 89 de             	mov    %rbx,%rsi
    3035:	e8 17 03 00 00       	call   3351 <_ZSt22__uninitialized_copy_aISt13move_iteratorIPmES1_mET0_T_S4_S3_RSaIT1_E>
    303a:	48 8b 5d f8          	mov    -0x8(%rbp),%rbx
    303e:	c9                   	leave  
    303f:	c3                   	ret    

0000000000003040 <_ZNSt16allocator_traitsISaImEE7destroyImEEvRS0_PT_>:
    3040:	f3 0f 1e fa          	endbr64 
    3044:	55                   	push   %rbp
    3045:	48 89 e5             	mov    %rsp,%rbp
    3048:	48 83 ec 10          	sub    $0x10,%rsp
    304c:	48 89 7d f8          	mov    %rdi,-0x8(%rbp)
    3050:	48 89 75 f0          	mov    %rsi,-0x10(%rbp)
    3054:	48 8b 55 f0          	mov    -0x10(%rbp),%rdx
    3058:	48 8b 45 f8          	mov    -0x8(%rbp),%rax
    305c:	48 89 d6             	mov    %rdx,%rsi
    305f:	48 89 c7             	mov    %rax,%rdi
    3062:	e8 1f 03 00 00       	call   3386 <_ZN9__gnu_cxx13new_allocatorImE7destroyImEEvPT_>
    3067:	90                   	nop
    3068:	c9                   	leave  
    3069:	c3                   	ret    

000000000000306a <_ZN9__gnu_cxx13new_allocatorImE10deallocateEPmm>:
    306a:	f3 0f 1e fa          	endbr64 
    306e:	55                   	push   %rbp
    306f:	48 89 e5             	mov    %rsp,%rbp
    3072:	48 83 ec 20          	sub    $0x20,%rsp
    3076:	48 89 7d f8          	mov    %rdi,-0x8(%rbp)
    307a:	48 89 75 f0          	mov    %rsi,-0x10(%rbp)
    307e:	48 89 55 e8          	mov    %rdx,-0x18(%rbp)
    3082:	48 8b 45 f0          	mov    -0x10(%rbp),%rax
    3086:	48 89 c7             	mov    %rax,%rdi
    3089:	e8 22 e2 ff ff       	call   12b0 <_ZdlPv@plt>
    308e:	90                   	nop
    308f:	c9                   	leave  
    3090:	c3                   	ret    

0000000000003091 <_ZNSt12_Destroy_auxILb1EE9__destroyIPmEEvT_S3_>:
    3091:	f3 0f 1e fa          	endbr64 
    3095:	55                   	push   %rbp
    3096:	48 89 e5             	mov    %rsp,%rbp
    3099:	48 89 7d f8          	mov    %rdi,-0x8(%rbp)
    309d:	48 89 75 f0          	mov    %rsi,-0x10(%rbp)
    30a1:	90                   	nop
    30a2:	5d                   	pop    %rbp
    30a3:	c3                   	ret    

00000000000030a4 <_ZN9__gnu_cxx13new_allocatorIP10ThreadDataE10deallocateEPS2_m>:
    30a4:	f3 0f 1e fa          	endbr64 
    30a8:	55                   	push   %rbp
    30a9:	48 89 e5             	mov    %rsp,%rbp
    30ac:	48 83 ec 20          	sub    $0x20,%rsp
    30b0:	48 89 7d f8          	mov    %rdi,-0x8(%rbp)
    30b4:	48 89 75 f0          	mov    %rsi,-0x10(%rbp)
    30b8:	48 89 55 e8          	mov    %rdx,-0x18(%rbp)
    30bc:	48 8b 45 f0          	mov    -0x10(%rbp),%rax
    30c0:	48 89 c7             	mov    %rax,%rdi
    30c3:	e8 e8 e1 ff ff       	call   12b0 <_ZdlPv@plt>
    30c8:	90                   	nop
    30c9:	c9                   	leave  
    30ca:	c3                   	ret    

00000000000030cb <_ZNSt12_Destroy_auxILb1EE9__destroyIPP10ThreadDataEEvT_S5_>:
    30cb:	f3 0f 1e fa          	endbr64 
    30cf:	55                   	push   %rbp
    30d0:	48 89 e5             	mov    %rsp,%rbp
    30d3:	48 89 7d f8          	mov    %rdi,-0x8(%rbp)
    30d7:	48 89 75 f0          	mov    %rsi,-0x10(%rbp)
    30db:	90                   	nop
    30dc:	5d                   	pop    %rbp
    30dd:	c3                   	ret    

00000000000030de <_ZNKSt6vectorIP10ThreadDataSaIS1_EE8max_sizeEv>:
    30de:	f3 0f 1e fa          	endbr64 
    30e2:	55                   	push   %rbp
    30e3:	48 89 e5             	mov    %rsp,%rbp
    30e6:	48 83 ec 10          	sub    $0x10,%rsp
    30ea:	48 89 7d f8          	mov    %rdi,-0x8(%rbp)
    30ee:	48 8b 45 f8          	mov    -0x8(%rbp),%rax
    30f2:	48 89 c7             	mov    %rax,%rdi
    30f5:	e8 08 03 00 00       	call   3402 <_ZNKSt12_Vector_baseIP10ThreadDataSaIS1_EE19_M_get_Tp_allocatorEv>
    30fa:	48 89 c7             	mov    %rax,%rdi
    30fd:	e8 97 02 00 00       	call   3399 <_ZNSt6vectorIP10ThreadDataSaIS1_EE11_S_max_sizeERKS2_>
    3102:	c9                   	leave  
    3103:	c3                   	ret    

0000000000003104 <_ZNKSt6vectorIP10ThreadDataSaIS1_EE4sizeEv>:
    3104:	f3 0f 1e fa          	endbr64 
    3108:	55                   	push   %rbp
    3109:	48 89 e5             	mov    %rsp,%rbp
    310c:	48 89 7d f8          	mov    %rdi,-0x8(%rbp)
    3110:	48 8b 45 f8          	mov    -0x8(%rbp),%rax
    3114:	48 8b 50 08          	mov    0x8(%rax),%rdx
    3118:	48 8b 45 f8          	mov    -0x8(%rbp),%rax
    311c:	48 8b 08             	mov    (%rax),%rcx
    311f:	48 89 d0             	mov    %rdx,%rax
    3122:	48 29 c8             	sub    %rcx,%rax
    3125:	48 c1 f8 03          	sar    $0x3,%rax
    3129:	5d                   	pop    %rbp
    312a:	c3                   	ret    

000000000000312b <_ZSt3maxImERKT_S2_S2_>:
    312b:	f3 0f 1e fa          	endbr64 
    312f:	55                   	push   %rbp
    3130:	48 89 e5             	mov    %rsp,%rbp
    3133:	48 89 7d f8          	mov    %rdi,-0x8(%rbp)
    3137:	48 89 75 f0          	mov    %rsi,-0x10(%rbp)
    313b:	48 8b 45 f8          	mov    -0x8(%rbp),%rax
    313f:	48 8b 10             	mov    (%rax),%rdx
    3142:	48 8b 45 f0          	mov    -0x10(%rbp),%rax
    3146:	48 8b 00             	mov    (%rax),%rax
    3149:	48 39 c2             	cmp    %rax,%rdx
    314c:	73 06                	jae    3154 <_ZSt3maxImERKT_S2_S2_+0x29>
    314e:	48 8b 45 f0          	mov    -0x10(%rbp),%rax
    3152:	eb 04                	jmp    3158 <_ZSt3maxImERKT_S2_S2_+0x2d>
    3154:	48 8b 45 f8          	mov    -0x8(%rbp),%rax
    3158:	5d                   	pop    %rbp
    3159:	c3                   	ret    

000000000000315a <_ZNSt16allocator_traitsISaIP10ThreadDataEE8allocateERS2_m>:
    315a:	f3 0f 1e fa          	endbr64 
    315e:	55                   	push   %rbp
    315f:	48 89 e5             	mov    %rsp,%rbp
    3162:	48 83 ec 10          	sub    $0x10,%rsp
    3166:	48 89 7d f8          	mov    %rdi,-0x8(%rbp)
    316a:	48 89 75 f0          	mov    %rsi,-0x10(%rbp)
    316e:	48 8b 4d f0          	mov    -0x10(%rbp),%rcx
    3172:	48 8b 45 f8          	mov    -0x8(%rbp),%rax
    3176:	ba 00 00 00 00       	mov    $0x0,%edx
    317b:	48 89 ce             	mov    %rcx,%rsi
    317e:	48 89 c7             	mov    %rax,%rdi
    3181:	e8 8e 02 00 00       	call   3414 <_ZN9__gnu_cxx13new_allocatorIP10ThreadDataE8allocateEmPKv>
    3186:	c9                   	leave  
    3187:	c3                   	ret    

0000000000003188 <_ZNSt6vectorIP10ThreadDataSaIS1_EE14_S_do_relocateEPS1_S4_S4_RS2_St17integral_constantIbLb1EE>:
    3188:	f3 0f 1e fa          	endbr64 
    318c:	55                   	push   %rbp
    318d:	48 89 e5             	mov    %rsp,%rbp
    3190:	48 83 ec 20          	sub    $0x20,%rsp
    3194:	48 89 7d f8          	mov    %rdi,-0x8(%rbp)
    3198:	48 89 75 f0          	mov    %rsi,-0x10(%rbp)
    319c:	48 89 55 e8          	mov    %rdx,-0x18(%rbp)
    31a0:	48 89 4d e0          	mov    %rcx,-0x20(%rbp)
    31a4:	48 8b 4d e0          	mov    -0x20(%rbp),%rcx
    31a8:	48 8b 55 e8          	mov    -0x18(%rbp),%rdx
    31ac:	48 8b 75 f0          	mov    -0x10(%rbp),%rsi
    31b0:	48 8b 45 f8          	mov    -0x8(%rbp),%rax
    31b4:	48 89 c7             	mov    %rax,%rdi
    31b7:	e8 bc 02 00 00       	call   3478 <_ZSt12__relocate_aIPP10ThreadDataS2_SaIS1_EET0_T_S5_S4_RT1_>
    31bc:	c9                   	leave  
    31bd:	c3                   	ret    

00000000000031be <_ZSt32__make_move_if_noexcept_iteratorIP10ThreadDataSt13move_iteratorIPS1_EET0_PT_>:
    31be:	f3 0f 1e fa          	endbr64 
    31c2:	55                   	push   %rbp
    31c3:	48 89 e5             	mov    %rsp,%rbp
    31c6:	48 83 ec 20          	sub    $0x20,%rsp
    31ca:	48 89 7d e8          	mov    %rdi,-0x18(%rbp)
    31ce:	64 48 8b 04 25 28 00 	mov    %fs:0x28,%rax
    31d5:	00 00 
    31d7:	48 89 45 f8          	mov    %rax,-0x8(%rbp)
    31db:	31 c0                	xor    %eax,%eax
    31dd:	48 8b 55 e8          	mov    -0x18(%rbp),%rdx
    31e1:	48 8d 45 f0          	lea    -0x10(%rbp),%rax
    31e5:	48 89 d6             	mov    %rdx,%rsi
    31e8:	48 89 c7             	mov    %rax,%rdi
    31eb:	e8 f0 02 00 00       	call   34e0 <_ZNSt13move_iteratorIPP10ThreadDataEC1ES2_>
    31f0:	48 8b 45 f0          	mov    -0x10(%rbp),%rax
    31f4:	48 8b 55 f8          	mov    -0x8(%rbp),%rdx
    31f8:	64 48 2b 14 25 28 00 	sub    %fs:0x28,%rdx
    31ff:	00 00 
    3201:	74 05                	je     3208 <_ZSt32__make_move_if_noexcept_iteratorIP10ThreadDataSt13move_iteratorIPS1_EET0_PT_+0x4a>
    3203:	e8 d8 e0 ff ff       	call   12e0 <__stack_chk_fail@plt>
    3208:	c9                   	leave  
    3209:	c3                   	ret    

000000000000320a <_ZSt22__uninitialized_copy_aISt13move_iteratorIPP10ThreadDataES3_S2_ET0_T_S6_S5_RSaIT1_E>:
    320a:	f3 0f 1e fa          	endbr64 
    320e:	55                   	push   %rbp
    320f:	48 89 e5             	mov    %rsp,%rbp
    3212:	48 83 ec 20          	sub    $0x20,%rsp
    3216:	48 89 7d f8          	mov    %rdi,-0x8(%rbp)
    321a:	48 89 75 f0          	mov    %rsi,-0x10(%rbp)
    321e:	48 89 55 e8          	mov    %rdx,-0x18(%rbp)
    3222:	48 89 4d e0          	mov    %rcx,-0x20(%rbp)
    3226:	48 8b 55 e8          	mov    -0x18(%rbp),%rdx
    322a:	48 8b 4d f0          	mov    -0x10(%rbp),%rcx
    322e:	48 8b 45 f8          	mov    -0x8(%rbp),%rax
    3232:	48 89 ce             	mov    %rcx,%rsi
    3235:	48 89 c7             	mov    %rax,%rdi
    3238:	e8 d0 02 00 00       	call   350d <_ZSt18uninitialized_copyISt13move_iteratorIPP10ThreadDataES3_ET0_T_S6_S5_>
    323d:	c9                   	leave  
    323e:	c3                   	ret    
    323f:	90                   	nop

0000000000003240 <_ZN9__gnu_cxx13new_allocatorIP10ThreadDataE7destroyIS2_EEvPT_>:
    3240:	f3 0f 1e fa          	endbr64 
    3244:	55                   	push   %rbp
    3245:	48 89 e5             	mov    %rsp,%rbp
    3248:	48 89 7d f8          	mov    %rdi,-0x8(%rbp)
    324c:	48 89 75 f0          	mov    %rsi,-0x10(%rbp)
    3250:	90                   	nop
    3251:	5d                   	pop    %rbp
    3252:	c3                   	ret    
    3253:	90                   	nop

0000000000003254 <_ZNKSt6vectorImSaImEE8max_sizeEv>:
    3254:	f3 0f 1e fa          	endbr64 
    3258:	55                   	push   %rbp
    3259:	48 89 e5             	mov    %rsp,%rbp
    325c:	48 83 ec 10          	sub    $0x10,%rsp
    3260:	48 89 7d f8          	mov    %rdi,-0x8(%rbp)
    3264:	48 8b 45 f8          	mov    -0x8(%rbp),%rax
    3268:	48 89 c7             	mov    %rax,%rdi
    326b:	e8 3c 03 00 00       	call   35ac <_ZNKSt12_Vector_baseImSaImEE19_M_get_Tp_allocatorEv>
    3270:	48 89 c7             	mov    %rax,%rdi
    3273:	e8 ca 02 00 00       	call   3542 <_ZNSt6vectorImSaImEE11_S_max_sizeERKS0_>
    3278:	c9                   	leave  
    3279:	c3                   	ret    

000000000000327a <_ZNKSt6vectorImSaImEE4sizeEv>:
    327a:	f3 0f 1e fa          	endbr64 
    327e:	55                   	push   %rbp
    327f:	48 89 e5             	mov    %rsp,%rbp
    3282:	48 89 7d f8          	mov    %rdi,-0x8(%rbp)
    3286:	48 8b 45 f8          	mov    -0x8(%rbp),%rax
    328a:	48 8b 50 08          	mov    0x8(%rax),%rdx
    328e:	48 8b 45 f8          	mov    -0x8(%rbp),%rax
    3292:	48 8b 08             	mov    (%rax),%rcx
    3295:	48 89 d0             	mov    %rdx,%rax
    3298:	48 29 c8             	sub    %rcx,%rax
    329b:	48 c1 f8 03          	sar    $0x3,%rax
    329f:	5d                   	pop    %rbp
    32a0:	c3                   	ret    

00000000000032a1 <_ZNSt16allocator_traitsISaImEE8allocateERS0_m>:
    32a1:	f3 0f 1e fa          	endbr64 
    32a5:	55                   	push   %rbp
    32a6:	48 89 e5             	mov    %rsp,%rbp
    32a9:	48 83 ec 10          	sub    $0x10,%rsp
    32ad:	48 89 7d f8          	mov    %rdi,-0x8(%rbp)
    32b1:	48 89 75 f0          	mov    %rsi,-0x10(%rbp)
    32b5:	48 8b 4d f0          	mov    -0x10(%rbp),%rcx
    32b9:	48 8b 45 f8          	mov    -0x8(%rbp),%rax
    32bd:	ba 00 00 00 00       	mov    $0x0,%edx
    32c2:	48 89 ce             	mov    %rcx,%rsi
    32c5:	48 89 c7             	mov    %rax,%rdi
    32c8:	e8 f1 02 00 00       	call   35be <_ZN9__gnu_cxx13new_allocatorImE8allocateEmPKv>
    32cd:	c9                   	leave  
    32ce:	c3                   	ret    

00000000000032cf <_ZNSt6vectorImSaImEE14_S_do_relocateEPmS2_S2_RS0_St17integral_constantIbLb1EE>:
    32cf:	f3 0f 1e fa          	endbr64 
    32d3:	55                   	push   %rbp
    32d4:	48 89 e5             	mov    %rsp,%rbp
    32d7:	48 83 ec 20          	sub    $0x20,%rsp
    32db:	48 89 7d f8          	mov    %rdi,-0x8(%rbp)
    32df:	48 89 75 f0          	mov    %rsi,-0x10(%rbp)
    32e3:	48 89 55 e8          	mov    %rdx,-0x18(%rbp)
    32e7:	48 89 4d e0          	mov    %rcx,-0x20(%rbp)
    32eb:	48 8b 4d e0          	mov    -0x20(%rbp),%rcx
    32ef:	48 8b 55 e8          	mov    -0x18(%rbp),%rdx
    32f3:	48 8b 75 f0          	mov    -0x10(%rbp),%rsi
    32f7:	48 8b 45 f8          	mov    -0x8(%rbp),%rax
    32fb:	48 89 c7             	mov    %rax,%rdi
    32fe:	e8 1f 03 00 00       	call   3622 <_ZSt12__relocate_aIPmS0_SaImEET0_T_S3_S2_RT1_>
    3303:	c9                   	leave  
    3304:	c3                   	ret    

0000000000003305 <_ZSt32__make_move_if_noexcept_iteratorImSt13move_iteratorIPmEET0_PT_>:
    3305:	f3 0f 1e fa          	endbr64 
    3309:	55                   	push   %rbp
    330a:	48 89 e5             	mov    %rsp,%rbp
    330d:	48 83 ec 20          	sub    $0x20,%rsp
    3311:	48 89 7d e8          	mov    %rdi,-0x18(%rbp)
    3315:	64 48 8b 04 25 28 00 	mov    %fs:0x28,%rax
    331c:	00 00 
    331e:	48 89 45 f8          	mov    %rax,-0x8(%rbp)
    3322:	31 c0                	xor    %eax,%eax
    3324:	48 8b 55 e8          	mov    -0x18(%rbp),%rdx
    3328:	48 8d 45 f0          	lea    -0x10(%rbp),%rax
    332c:	48 89 d6             	mov    %rdx,%rsi
    332f:	48 89 c7             	mov    %rax,%rdi
    3332:	e8 53 03 00 00       	call   368a <_ZNSt13move_iteratorIPmEC1ES0_>
    3337:	48 8b 45 f0          	mov    -0x10(%rbp),%rax
    333b:	48 8b 55 f8          	mov    -0x8(%rbp),%rdx
    333f:	64 48 2b 14 25 28 00 	sub    %fs:0x28,%rdx
    3346:	00 00 
    3348:	74 05                	je     334f <_ZSt32__make_move_if_noexcept_iteratorImSt13move_iteratorIPmEET0_PT_+0x4a>
    334a:	e8 91 df ff ff       	call   12e0 <__stack_chk_fail@plt>
    334f:	c9                   	leave  
    3350:	c3                   	ret    

0000000000003351 <_ZSt22__uninitialized_copy_aISt13move_iteratorIPmES1_mET0_T_S4_S3_RSaIT1_E>:
    3351:	f3 0f 1e fa          	endbr64 
    3355:	55                   	push   %rbp
    3356:	48 89 e5             	mov    %rsp,%rbp
    3359:	48 83 ec 20          	sub    $0x20,%rsp
    335d:	48 89 7d f8          	mov    %rdi,-0x8(%rbp)
    3361:	48 89 75 f0          	mov    %rsi,-0x10(%rbp)
    3365:	48 89 55 e8          	mov    %rdx,-0x18(%rbp)
    3369:	48 89 4d e0          	mov    %rcx,-0x20(%rbp)
    336d:	48 8b 55 e8          	mov    -0x18(%rbp),%rdx
    3371:	48 8b 4d f0          	mov    -0x10(%rbp),%rcx
    3375:	48 8b 45 f8          	mov    -0x8(%rbp),%rax
    3379:	48 89 ce             	mov    %rcx,%rsi
    337c:	48 89 c7             	mov    %rax,%rdi
    337f:	e8 33 03 00 00       	call   36b7 <_ZSt18uninitialized_copyISt13move_iteratorIPmES1_ET0_T_S4_S3_>
    3384:	c9                   	leave  
    3385:	c3                   	ret    

0000000000003386 <_ZN9__gnu_cxx13new_allocatorImE7destroyImEEvPT_>:
    3386:	f3 0f 1e fa          	endbr64 
    338a:	55                   	push   %rbp
    338b:	48 89 e5             	mov    %rsp,%rbp
    338e:	48 89 7d f8          	mov    %rdi,-0x8(%rbp)
    3392:	48 89 75 f0          	mov    %rsi,-0x10(%rbp)
    3396:	90                   	nop
    3397:	5d                   	pop    %rbp
    3398:	c3                   	ret    

0000000000003399 <_ZNSt6vectorIP10ThreadDataSaIS1_EE11_S_max_sizeERKS2_>:
    3399:	f3 0f 1e fa          	endbr64 
    339d:	55                   	push   %rbp
    339e:	48 89 e5             	mov    %rsp,%rbp
    33a1:	48 83 ec 30          	sub    $0x30,%rsp
    33a5:	48 89 7d d8          	mov    %rdi,-0x28(%rbp)
    33a9:	64 48 8b 04 25 28 00 	mov    %fs:0x28,%rax
    33b0:	00 00 
    33b2:	48 89 45 f8          	mov    %rax,-0x8(%rbp)
    33b6:	31 c0                	xor    %eax,%eax
    33b8:	48 b8 ff ff ff ff ff 	movabs $0xfffffffffffffff,%rax
    33bf:	ff ff 0f 
    33c2:	48 89 45 e8          	mov    %rax,-0x18(%rbp)
    33c6:	48 8b 45 d8          	mov    -0x28(%rbp),%rax
    33ca:	48 89 c7             	mov    %rax,%rdi
    33cd:	e8 1a 03 00 00       	call   36ec <_ZNSt16allocator_traitsISaIP10ThreadDataEE8max_sizeERKS2_>
    33d2:	48 89 45 f0          	mov    %rax,-0x10(%rbp)
    33d6:	48 8d 55 f0          	lea    -0x10(%rbp),%rdx
    33da:	48 8d 45 e8          	lea    -0x18(%rbp),%rax
    33de:	48 89 d6             	mov    %rdx,%rsi
    33e1:	48 89 c7             	mov    %rax,%rdi
    33e4:	e8 21 03 00 00       	call   370a <_ZSt3minImERKT_S2_S2_>
    33e9:	48 8b 00             	mov    (%rax),%rax
    33ec:	48 8b 55 f8          	mov    -0x8(%rbp),%rdx
    33f0:	64 48 2b 14 25 28 00 	sub    %fs:0x28,%rdx
    33f7:	00 00 
    33f9:	74 05                	je     3400 <_ZNSt6vectorIP10ThreadDataSaIS1_EE11_S_max_sizeERKS2_+0x67>
    33fb:	e8 e0 de ff ff       	call   12e0 <__stack_chk_fail@plt>
    3400:	c9                   	leave  
    3401:	c3                   	ret    

0000000000003402 <_ZNKSt12_Vector_baseIP10ThreadDataSaIS1_EE19_M_get_Tp_allocatorEv>:
    3402:	f3 0f 1e fa          	endbr64 
    3406:	55                   	push   %rbp
    3407:	48 89 e5             	mov    %rsp,%rbp
    340a:	48 89 7d f8          	mov    %rdi,-0x8(%rbp)
    340e:	48 8b 45 f8          	mov    -0x8(%rbp),%rax
    3412:	5d                   	pop    %rbp
    3413:	c3                   	ret    

0000000000003414 <_ZN9__gnu_cxx13new_allocatorIP10ThreadDataE8allocateEmPKv>:
    3414:	f3 0f 1e fa          	endbr64 
    3418:	55                   	push   %rbp
    3419:	48 89 e5             	mov    %rsp,%rbp
    341c:	48 83 ec 20          	sub    $0x20,%rsp
    3420:	48 89 7d f8          	mov    %rdi,-0x8(%rbp)
    3424:	48 89 75 f0          	mov    %rsi,-0x10(%rbp)
    3428:	48 89 55 e8          	mov    %rdx,-0x18(%rbp)
    342c:	48 8b 45 f8          	mov    -0x8(%rbp),%rax
    3430:	48 89 c7             	mov    %rax,%rdi
    3433:	e8 02 03 00 00       	call   373a <_ZNK9__gnu_cxx13new_allocatorIP10ThreadDataE11_M_max_sizeEv>
    3438:	48 39 45 f0          	cmp    %rax,-0x10(%rbp)
    343c:	0f 97 c0             	seta   %al
    343f:	0f b6 c0             	movzbl %al,%eax
    3442:	48 85 c0             	test   %rax,%rax
    3445:	0f 95 c0             	setne  %al
    3448:	84 c0                	test   %al,%al
    344a:	74 1a                	je     3466 <_ZN9__gnu_cxx13new_allocatorIP10ThreadDataE8allocateEmPKv+0x52>
    344c:	48 b8 ff ff ff ff ff 	movabs $0x1fffffffffffffff,%rax
    3453:	ff ff 1f 
    3456:	48 39 45 f0          	cmp    %rax,-0x10(%rbp)
    345a:	76 05                	jbe    3461 <_ZN9__gnu_cxx13new_allocatorIP10ThreadDataE8allocateEmPKv+0x4d>
    345c:	e8 1f de ff ff       	call   1280 <_ZSt28__throw_bad_array_new_lengthv@plt>
    3461:	e8 aa dd ff ff       	call   1210 <_ZSt17__throw_bad_allocv@plt>
    3466:	48 8b 45 f0          	mov    -0x10(%rbp),%rax
    346a:	48 c1 e0 03          	shl    $0x3,%rax
    346e:	48 89 c7             	mov    %rax,%rdi
    3471:	e8 4a de ff ff       	call   12c0 <_Znwm@plt>
    3476:	c9                   	leave  
    3477:	c3                   	ret    

0000000000003478 <_ZSt12__relocate_aIPP10ThreadDataS2_SaIS1_EET0_T_S5_S4_RT1_>:
    3478:	f3 0f 1e fa          	endbr64 
    347c:	55                   	push   %rbp
    347d:	48 89 e5             	mov    %rsp,%rbp
    3480:	41 54                	push   %r12
    3482:	53                   	push   %rbx
    3483:	48 83 ec 20          	sub    $0x20,%rsp
    3487:	48 89 7d e8          	mov    %rdi,-0x18(%rbp)
    348b:	48 89 75 e0          	mov    %rsi,-0x20(%rbp)
    348f:	48 89 55 d8          	mov    %rdx,-0x28(%rbp)
    3493:	48 89 4d d0          	mov    %rcx,-0x30(%rbp)
    3497:	48 8b 45 d8          	mov    -0x28(%rbp),%rax
    349b:	48 89 c7             	mov    %rax,%rdi
    349e:	e8 af 02 00 00       	call   3752 <_ZSt12__niter_baseIPP10ThreadDataET_S3_>
    34a3:	49 89 c4             	mov    %rax,%r12
    34a6:	48 8b 45 e0          	mov    -0x20(%rbp),%rax
    34aa:	48 89 c7             	mov    %rax,%rdi
    34ad:	e8 a0 02 00 00       	call   3752 <_ZSt12__niter_baseIPP10ThreadDataET_S3_>
    34b2:	48 89 c3             	mov    %rax,%rbx
    34b5:	48 8b 45 e8          	mov    -0x18(%rbp),%rax
    34b9:	48 89 c7             	mov    %rax,%rdi
    34bc:	e8 91 02 00 00       	call   3752 <_ZSt12__niter_baseIPP10ThreadDataET_S3_>
    34c1:	48 89 c7             	mov    %rax,%rdi
    34c4:	48 8b 45 d0          	mov    -0x30(%rbp),%rax
    34c8:	48 89 c1             	mov    %rax,%rcx
    34cb:	4c 89 e2             	mov    %r12,%rdx
    34ce:	48 89 de             	mov    %rbx,%rsi
    34d1:	e8 8e 02 00 00       	call   3764 <_ZSt14__relocate_a_1IP10ThreadDataS1_ENSt9enable_ifIXsrSt24__is_bitwise_relocatableIT_vE5valueEPS4_E4typeES6_S6_S6_RSaIT0_E>
    34d6:	48 83 c4 20          	add    $0x20,%rsp
    34da:	5b                   	pop    %rbx
    34db:	41 5c                	pop    %r12
    34dd:	5d                   	pop    %rbp
    34de:	c3                   	ret    
    34df:	90                   	nop

00000000000034e0 <_ZNSt13move_iteratorIPP10ThreadDataEC1ES2_>:
    34e0:	f3 0f 1e fa          	endbr64 
    34e4:	55                   	push   %rbp
    34e5:	48 89 e5             	mov    %rsp,%rbp
    34e8:	48 83 ec 10          	sub    $0x10,%rsp
    34ec:	48 89 7d f8          	mov    %rdi,-0x8(%rbp)
    34f0:	48 89 75 f0          	mov    %rsi,-0x10(%rbp)
    34f4:	48 8d 45 f0          	lea    -0x10(%rbp),%rax
    34f8:	48 89 c7             	mov    %rax,%rdi
    34fb:	e8 cb 02 00 00       	call   37cb <_ZSt4moveIRPP10ThreadDataEONSt16remove_referenceIT_E4typeEOS5_>
    3500:	48 8b 10             	mov    (%rax),%rdx
    3503:	48 8b 45 f8          	mov    -0x8(%rbp),%rax
    3507:	48 89 10             	mov    %rdx,(%rax)
    350a:	90                   	nop
    350b:	c9                   	leave  
    350c:	c3                   	ret    

000000000000350d <_ZSt18uninitialized_copyISt13move_iteratorIPP10ThreadDataES3_ET0_T_S6_S5_>:
    350d:	f3 0f 1e fa          	endbr64 
    3511:	55                   	push   %rbp
    3512:	48 89 e5             	mov    %rsp,%rbp
    3515:	48 83 ec 30          	sub    $0x30,%rsp
    3519:	48 89 7d e8          	mov    %rdi,-0x18(%rbp)
    351d:	48 89 75 e0          	mov    %rsi,-0x20(%rbp)
    3521:	48 89 55 d8          	mov    %rdx,-0x28(%rbp)
    3525:	c6 45 ff 01          	movb   $0x1,-0x1(%rbp)
    3529:	48 8b 55 d8          	mov    -0x28(%rbp),%rdx
    352d:	48 8b 4d e0          	mov    -0x20(%rbp),%rcx
    3531:	48 8b 45 e8          	mov    -0x18(%rbp),%rax
    3535:	48 89 ce             	mov    %rcx,%rsi
    3538:	48 89 c7             	mov    %rax,%rdi
    353b:	e8 9d 02 00 00       	call   37dd <_ZNSt20__uninitialized_copyILb1EE13__uninit_copyISt13move_iteratorIPP10ThreadDataES5_EET0_T_S8_S7_>
    3540:	c9                   	leave  
    3541:	c3                   	ret    

0000000000003542 <_ZNSt6vectorImSaImEE11_S_max_sizeERKS0_>:
    3542:	f3 0f 1e fa          	endbr64 
    3546:	55                   	push   %rbp
    3547:	48 89 e5             	mov    %rsp,%rbp
    354a:	48 83 ec 30          	sub    $0x30,%rsp
    354e:	48 89 7d d8          	mov    %rdi,-0x28(%rbp)
    3552:	64 48 8b 04 25 28 00 	mov    %fs:0x28,%rax
    3559:	00 00 
    355b:	48 89 45 f8          	mov    %rax,-0x8(%rbp)
    355f:	31 c0                	xor    %eax,%eax
    3561:	48 b8 ff ff ff ff ff 	movabs $0xfffffffffffffff,%rax
    3568:	ff ff 0f 
    356b:	48 89 45 e8          	mov    %rax,-0x18(%rbp)
    356f:	48 8b 45 d8          	mov    -0x28(%rbp),%rax
    3573:	48 89 c7             	mov    %rax,%rdi
    3576:	e8 93 02 00 00       	call   380e <_ZNSt16allocator_traitsISaImEE8max_sizeERKS0_>
    357b:	48 89 45 f0          	mov    %rax,-0x10(%rbp)
    357f:	48 8d 55 f0          	lea    -0x10(%rbp),%rdx
    3583:	48 8d 45 e8          	lea    -0x18(%rbp),%rax
    3587:	48 89 d6             	mov    %rdx,%rsi
    358a:	48 89 c7             	mov    %rax,%rdi
    358d:	e8 78 01 00 00       	call   370a <_ZSt3minImERKT_S2_S2_>
    3592:	48 8b 00             	mov    (%rax),%rax
    3595:	48 8b 55 f8          	mov    -0x8(%rbp),%rdx
    3599:	64 48 2b 14 25 28 00 	sub    %fs:0x28,%rdx
    35a0:	00 00 
    35a2:	74 05                	je     35a9 <_ZNSt6vectorImSaImEE11_S_max_sizeERKS0_+0x67>
    35a4:	e8 37 dd ff ff       	call   12e0 <__stack_chk_fail@plt>
    35a9:	c9                   	leave  
    35aa:	c3                   	ret    
    35ab:	90                   	nop

00000000000035ac <_ZNKSt12_Vector_baseImSaImEE19_M_get_Tp_allocatorEv>:
    35ac:	f3 0f 1e fa          	endbr64 
    35b0:	55                   	push   %rbp
    35b1:	48 89 e5             	mov    %rsp,%rbp
    35b4:	48 89 7d f8          	mov    %rdi,-0x8(%rbp)
    35b8:	48 8b 45 f8          	mov    -0x8(%rbp),%rax
    35bc:	5d                   	pop    %rbp
    35bd:	c3                   	ret    

00000000000035be <_ZN9__gnu_cxx13new_allocatorImE8allocateEmPKv>:
    35be:	f3 0f 1e fa          	endbr64 
    35c2:	55                   	push   %rbp
    35c3:	48 89 e5             	mov    %rsp,%rbp
    35c6:	48 83 ec 20          	sub    $0x20,%rsp
    35ca:	48 89 7d f8          	mov    %rdi,-0x8(%rbp)
    35ce:	48 89 75 f0          	mov    %rsi,-0x10(%rbp)
    35d2:	48 89 55 e8          	mov    %rdx,-0x18(%rbp)
    35d6:	48 8b 45 f8          	mov    -0x8(%rbp),%rax
    35da:	48 89 c7             	mov    %rax,%rdi
    35dd:	e8 4a 02 00 00       	call   382c <_ZNK9__gnu_cxx13new_allocatorImE11_M_max_sizeEv>
    35e2:	48 39 45 f0          	cmp    %rax,-0x10(%rbp)
    35e6:	0f 97 c0             	seta   %al
    35e9:	0f b6 c0             	movzbl %al,%eax
    35ec:	48 85 c0             	test   %rax,%rax
    35ef:	0f 95 c0             	setne  %al
    35f2:	84 c0                	test   %al,%al
    35f4:	74 1a                	je     3610 <_ZN9__gnu_cxx13new_allocatorImE8allocateEmPKv+0x52>
    35f6:	48 b8 ff ff ff ff ff 	movabs $0x1fffffffffffffff,%rax
    35fd:	ff ff 1f 
    3600:	48 39 45 f0          	cmp    %rax,-0x10(%rbp)
    3604:	76 05                	jbe    360b <_ZN9__gnu_cxx13new_allocatorImE8allocateEmPKv+0x4d>
    3606:	e8 75 dc ff ff       	call   1280 <_ZSt28__throw_bad_array_new_lengthv@plt>
    360b:	e8 00 dc ff ff       	call   1210 <_ZSt17__throw_bad_allocv@plt>
    3610:	48 8b 45 f0          	mov    -0x10(%rbp),%rax
    3614:	48 c1 e0 03          	shl    $0x3,%rax
    3618:	48 89 c7             	mov    %rax,%rdi
    361b:	e8 a0 dc ff ff       	call   12c0 <_Znwm@plt>
    3620:	c9                   	leave  
    3621:	c3                   	ret    

0000000000003622 <_ZSt12__relocate_aIPmS0_SaImEET0_T_S3_S2_RT1_>:
    3622:	f3 0f 1e fa          	endbr64 
    3626:	55                   	push   %rbp
    3627:	48 89 e5             	mov    %rsp,%rbp
    362a:	41 54                	push   %r12
    362c:	53                   	push   %rbx
    362d:	48 83 ec 20          	sub    $0x20,%rsp
    3631:	48 89 7d e8          	mov    %rdi,-0x18(%rbp)
    3635:	48 89 75 e0          	mov    %rsi,-0x20(%rbp)
    3639:	48 89 55 d8          	mov    %rdx,-0x28(%rbp)
    363d:	48 89 4d d0          	mov    %rcx,-0x30(%rbp)
    3641:	48 8b 45 d8          	mov    -0x28(%rbp),%rax
    3645:	48 89 c7             	mov    %rax,%rdi
    3648:	e8 f7 01 00 00       	call   3844 <_ZSt12__niter_baseIPmET_S1_>
    364d:	49 89 c4             	mov    %rax,%r12
    3650:	48 8b 45 e0          	mov    -0x20(%rbp),%rax
    3654:	48 89 c7             	mov    %rax,%rdi
    3657:	e8 e8 01 00 00       	call   3844 <_ZSt12__niter_baseIPmET_S1_>
    365c:	48 89 c3             	mov    %rax,%rbx
    365f:	48 8b 45 e8          	mov    -0x18(%rbp),%rax
    3663:	48 89 c7             	mov    %rax,%rdi
    3666:	e8 d9 01 00 00       	call   3844 <_ZSt12__niter_baseIPmET_S1_>
    366b:	48 89 c7             	mov    %rax,%rdi
    366e:	48 8b 45 d0          	mov    -0x30(%rbp),%rax
    3672:	48 89 c1             	mov    %rax,%rcx
    3675:	4c 89 e2             	mov    %r12,%rdx
    3678:	48 89 de             	mov    %rbx,%rsi
    367b:	e8 d6 01 00 00       	call   3856 <_ZSt14__relocate_a_1ImmENSt9enable_ifIXsrSt24__is_bitwise_relocatableIT_vE5valueEPS2_E4typeES4_S4_S4_RSaIT0_E>
    3680:	48 83 c4 20          	add    $0x20,%rsp
    3684:	5b                   	pop    %rbx
    3685:	41 5c                	pop    %r12
    3687:	5d                   	pop    %rbp
    3688:	c3                   	ret    
    3689:	90                   	nop

000000000000368a <_ZNSt13move_iteratorIPmEC1ES0_>:
    368a:	f3 0f 1e fa          	endbr64 
    368e:	55                   	push   %rbp
    368f:	48 89 e5             	mov    %rsp,%rbp
    3692:	48 83 ec 10          	sub    $0x10,%rsp
    3696:	48 89 7d f8          	mov    %rdi,-0x8(%rbp)
    369a:	48 89 75 f0          	mov    %rsi,-0x10(%rbp)
    369e:	48 8d 45 f0          	lea    -0x10(%rbp),%rax
    36a2:	48 89 c7             	mov    %rax,%rdi
    36a5:	e8 13 02 00 00       	call   38bd <_ZSt4moveIRPmEONSt16remove_referenceIT_E4typeEOS3_>
    36aa:	48 8b 10             	mov    (%rax),%rdx
    36ad:	48 8b 45 f8          	mov    -0x8(%rbp),%rax
    36b1:	48 89 10             	mov    %rdx,(%rax)
    36b4:	90                   	nop
    36b5:	c9                   	leave  
    36b6:	c3                   	ret    

00000000000036b7 <_ZSt18uninitialized_copyISt13move_iteratorIPmES1_ET0_T_S4_S3_>:
    36b7:	f3 0f 1e fa          	endbr64 
    36bb:	55                   	push   %rbp
    36bc:	48 89 e5             	mov    %rsp,%rbp
    36bf:	48 83 ec 30          	sub    $0x30,%rsp
    36c3:	48 89 7d e8          	mov    %rdi,-0x18(%rbp)
    36c7:	48 89 75 e0          	mov    %rsi,-0x20(%rbp)
    36cb:	48 89 55 d8          	mov    %rdx,-0x28(%rbp)
    36cf:	c6 45 ff 01          	movb   $0x1,-0x1(%rbp)
    36d3:	48 8b 55 d8          	mov    -0x28(%rbp),%rdx
    36d7:	48 8b 4d e0          	mov    -0x20(%rbp),%rcx
    36db:	48 8b 45 e8          	mov    -0x18(%rbp),%rax
    36df:	48 89 ce             	mov    %rcx,%rsi
    36e2:	48 89 c7             	mov    %rax,%rdi
    36e5:	e8 e5 01 00 00       	call   38cf <_ZNSt20__uninitialized_copyILb1EE13__uninit_copyISt13move_iteratorIPmES3_EET0_T_S6_S5_>
    36ea:	c9                   	leave  
    36eb:	c3                   	ret    

00000000000036ec <_ZNSt16allocator_traitsISaIP10ThreadDataEE8max_sizeERKS2_>:
    36ec:	f3 0f 1e fa          	endbr64 
    36f0:	55                   	push   %rbp
    36f1:	48 89 e5             	mov    %rsp,%rbp
    36f4:	48 83 ec 10          	sub    $0x10,%rsp
    36f8:	48 89 7d f8          	mov    %rdi,-0x8(%rbp)
    36fc:	48 8b 45 f8          	mov    -0x8(%rbp),%rax
    3700:	48 89 c7             	mov    %rax,%rdi
    3703:	e8 f8 01 00 00       	call   3900 <_ZNK9__gnu_cxx13new_allocatorIP10ThreadDataE8max_sizeEv>
    3708:	c9                   	leave  
    3709:	c3                   	ret    

000000000000370a <_ZSt3minImERKT_S2_S2_>:
    370a:	f3 0f 1e fa          	endbr64 
    370e:	55                   	push   %rbp
    370f:	48 89 e5             	mov    %rsp,%rbp
    3712:	48 89 7d f8          	mov    %rdi,-0x8(%rbp)
    3716:	48 89 75 f0          	mov    %rsi,-0x10(%rbp)
    371a:	48 8b 45 f0          	mov    -0x10(%rbp),%rax
    371e:	48 8b 10             	mov    (%rax),%rdx
    3721:	48 8b 45 f8          	mov    -0x8(%rbp),%rax
    3725:	48 8b 00             	mov    (%rax),%rax
    3728:	48 39 c2             	cmp    %rax,%rdx
    372b:	73 06                	jae    3733 <_ZSt3minImERKT_S2_S2_+0x29>
    372d:	48 8b 45 f0          	mov    -0x10(%rbp),%rax
    3731:	eb 04                	jmp    3737 <_ZSt3minImERKT_S2_S2_+0x2d>
    3733:	48 8b 45 f8          	mov    -0x8(%rbp),%rax
    3737:	5d                   	pop    %rbp
    3738:	c3                   	ret    
    3739:	90                   	nop

000000000000373a <_ZNK9__gnu_cxx13new_allocatorIP10ThreadDataE11_M_max_sizeEv>:
    373a:	f3 0f 1e fa          	endbr64 
    373e:	55                   	push   %rbp
    373f:	48 89 e5             	mov    %rsp,%rbp
    3742:	48 89 7d f8          	mov    %rdi,-0x8(%rbp)
    3746:	48 b8 ff ff ff ff ff 	movabs $0xfffffffffffffff,%rax
    374d:	ff ff 0f 
    3750:	5d                   	pop    %rbp
    3751:	c3                   	ret    

0000000000003752 <_ZSt12__niter_baseIPP10ThreadDataET_S3_>:
    3752:	f3 0f 1e fa          	endbr64 
    3756:	55                   	push   %rbp
    3757:	48 89 e5             	mov    %rsp,%rbp
    375a:	48 89 7d f8          	mov    %rdi,-0x8(%rbp)
    375e:	48 8b 45 f8          	mov    -0x8(%rbp),%rax
    3762:	5d                   	pop    %rbp
    3763:	c3                   	ret    

0000000000003764 <_ZSt14__relocate_a_1IP10ThreadDataS1_ENSt9enable_ifIXsrSt24__is_bitwise_relocatableIT_vE5valueEPS4_E4typeES6_S6_S6_RSaIT0_E>:
    3764:	f3 0f 1e fa          	endbr64 
    3768:	55                   	push   %rbp
    3769:	48 89 e5             	mov    %rsp,%rbp
    376c:	48 83 ec 30          	sub    $0x30,%rsp
    3770:	48 89 7d e8          	mov    %rdi,-0x18(%rbp)
    3774:	48 89 75 e0          	mov    %rsi,-0x20(%rbp)
    3778:	48 89 55 d8          	mov    %rdx,-0x28(%rbp)
    377c:	48 89 4d d0          	mov    %rcx,-0x30(%rbp)
    3780:	48 8b 45 e0          	mov    -0x20(%rbp),%rax
    3784:	48 2b 45 e8          	sub    -0x18(%rbp),%rax
    3788:	48 c1 f8 03          	sar    $0x3,%rax
    378c:	48 89 45 f8          	mov    %rax,-0x8(%rbp)
    3790:	48 83 7d f8 00       	cmpq   $0x0,-0x8(%rbp)
    3795:	7e 1f                	jle    37b6 <_ZSt14__relocate_a_1IP10ThreadDataS1_ENSt9enable_ifIXsrSt24__is_bitwise_relocatableIT_vE5valueEPS4_E4typeES6_S6_S6_RSaIT0_E+0x52>
    3797:	48 8b 45 f8          	mov    -0x8(%rbp),%rax
    379b:	48 8d 14 c5 00 00 00 	lea    0x0(,%rax,8),%rdx
    37a2:	00 
    37a3:	48 8b 4d e8          	mov    -0x18(%rbp),%rcx
    37a7:	48 8b 45 d8          	mov    -0x28(%rbp),%rax
    37ab:	48 89 ce             	mov    %rcx,%rsi
    37ae:	48 89 c7             	mov    %rax,%rdi
    37b1:	e8 8a db ff ff       	call   1340 <memmove@plt>
    37b6:	48 8b 45 f8          	mov    -0x8(%rbp),%rax
    37ba:	48 8d 14 c5 00 00 00 	lea    0x0(,%rax,8),%rdx
    37c1:	00 
    37c2:	48 8b 45 d8          	mov    -0x28(%rbp),%rax
    37c6:	48 01 d0             	add    %rdx,%rax
    37c9:	c9                   	leave  
    37ca:	c3                   	ret    

00000000000037cb <_ZSt4moveIRPP10ThreadDataEONSt16remove_referenceIT_E4typeEOS5_>:
    37cb:	f3 0f 1e fa          	endbr64 
    37cf:	55                   	push   %rbp
    37d0:	48 89 e5             	mov    %rsp,%rbp
    37d3:	48 89 7d f8          	mov    %rdi,-0x8(%rbp)
    37d7:	48 8b 45 f8          	mov    -0x8(%rbp),%rax
    37db:	5d                   	pop    %rbp
    37dc:	c3                   	ret    

00000000000037dd <_ZNSt20__uninitialized_copyILb1EE13__uninit_copyISt13move_iteratorIPP10ThreadDataES5_EET0_T_S8_S7_>:
    37dd:	f3 0f 1e fa          	endbr64 
    37e1:	55                   	push   %rbp
    37e2:	48 89 e5             	mov    %rsp,%rbp
    37e5:	48 83 ec 20          	sub    $0x20,%rsp
    37e9:	48 89 7d f8          	mov    %rdi,-0x8(%rbp)
    37ed:	48 89 75 f0          	mov    %rsi,-0x10(%rbp)
    37f1:	48 89 55 e8          	mov    %rdx,-0x18(%rbp)
    37f5:	48 8b 55 e8          	mov    -0x18(%rbp),%rdx
    37f9:	48 8b 4d f0          	mov    -0x10(%rbp),%rcx
    37fd:	48 8b 45 f8          	mov    -0x8(%rbp),%rax
    3801:	48 89 ce             	mov    %rcx,%rsi
    3804:	48 89 c7             	mov    %rax,%rdi
    3807:	e8 12 01 00 00       	call   391e <_ZSt4copyISt13move_iteratorIPP10ThreadDataES3_ET0_T_S6_S5_>
    380c:	c9                   	leave  
    380d:	c3                   	ret    

000000000000380e <_ZNSt16allocator_traitsISaImEE8max_sizeERKS0_>:
    380e:	f3 0f 1e fa          	endbr64 
    3812:	55                   	push   %rbp
    3813:	48 89 e5             	mov    %rsp,%rbp
    3816:	48 83 ec 10          	sub    $0x10,%rsp
    381a:	48 89 7d f8          	mov    %rdi,-0x8(%rbp)
    381e:	48 8b 45 f8          	mov    -0x8(%rbp),%rax
    3822:	48 89 c7             	mov    %rax,%rdi
    3825:	e8 44 01 00 00       	call   396e <_ZNK9__gnu_cxx13new_allocatorImE8max_sizeEv>
    382a:	c9                   	leave  
    382b:	c3                   	ret    

000000000000382c <_ZNK9__gnu_cxx13new_allocatorImE11_M_max_sizeEv>:
    382c:	f3 0f 1e fa          	endbr64 
    3830:	55                   	push   %rbp
    3831:	48 89 e5             	mov    %rsp,%rbp
    3834:	48 89 7d f8          	mov    %rdi,-0x8(%rbp)
    3838:	48 b8 ff ff ff ff ff 	movabs $0xfffffffffffffff,%rax
    383f:	ff ff 0f 
    3842:	5d                   	pop    %rbp
    3843:	c3                   	ret    

0000000000003844 <_ZSt12__niter_baseIPmET_S1_>:
    3844:	f3 0f 1e fa          	endbr64 
    3848:	55                   	push   %rbp
    3849:	48 89 e5             	mov    %rsp,%rbp
    384c:	48 89 7d f8          	mov    %rdi,-0x8(%rbp)
    3850:	48 8b 45 f8          	mov    -0x8(%rbp),%rax
    3854:	5d                   	pop    %rbp
    3855:	c3                   	ret    

0000000000003856 <_ZSt14__relocate_a_1ImmENSt9enable_ifIXsrSt24__is_bitwise_relocatableIT_vE5valueEPS2_E4typeES4_S4_S4_RSaIT0_E>:
    3856:	f3 0f 1e fa          	endbr64 
    385a:	55                   	push   %rbp
    385b:	48 89 e5             	mov    %rsp,%rbp
    385e:	48 83 ec 30          	sub    $0x30,%rsp
    3862:	48 89 7d e8          	mov    %rdi,-0x18(%rbp)
    3866:	48 89 75 e0          	mov    %rsi,-0x20(%rbp)
    386a:	48 89 55 d8          	mov    %rdx,-0x28(%rbp)
    386e:	48 89 4d d0          	mov    %rcx,-0x30(%rbp)
    3872:	48 8b 45 e0          	mov    -0x20(%rbp),%rax
    3876:	48 2b 45 e8          	sub    -0x18(%rbp),%rax
    387a:	48 c1 f8 03          	sar    $0x3,%rax
    387e:	48 89 45 f8          	mov    %rax,-0x8(%rbp)
    3882:	48 83 7d f8 00       	cmpq   $0x0,-0x8(%rbp)
    3887:	7e 1f                	jle    38a8 <_ZSt14__relocate_a_1ImmENSt9enable_ifIXsrSt24__is_bitwise_relocatableIT_vE5valueEPS2_E4typeES4_S4_S4_RSaIT0_E+0x52>
    3889:	48 8b 45 f8          	mov    -0x8(%rbp),%rax
    388d:	48 8d 14 c5 00 00 00 	lea    0x0(,%rax,8),%rdx
    3894:	00 
    3895:	48 8b 4d e8          	mov    -0x18(%rbp),%rcx
    3899:	48 8b 45 d8          	mov    -0x28(%rbp),%rax
    389d:	48 89 ce             	mov    %rcx,%rsi
    38a0:	48 89 c7             	mov    %rax,%rdi
    38a3:	e8 98 da ff ff       	call   1340 <memmove@plt>
    38a8:	48 8b 45 f8          	mov    -0x8(%rbp),%rax
    38ac:	48 8d 14 c5 00 00 00 	lea    0x0(,%rax,8),%rdx
    38b3:	00 
    38b4:	48 8b 45 d8          	mov    -0x28(%rbp),%rax
    38b8:	48 01 d0             	add    %rdx,%rax
    38bb:	c9                   	leave  
    38bc:	c3                   	ret    

00000000000038bd <_ZSt4moveIRPmEONSt16remove_referenceIT_E4typeEOS3_>:
    38bd:	f3 0f 1e fa          	endbr64 
    38c1:	55                   	push   %rbp
    38c2:	48 89 e5             	mov    %rsp,%rbp
    38c5:	48 89 7d f8          	mov    %rdi,-0x8(%rbp)
    38c9:	48 8b 45 f8          	mov    -0x8(%rbp),%rax
    38cd:	5d                   	pop    %rbp
    38ce:	c3                   	ret    

00000000000038cf <_ZNSt20__uninitialized_copyILb1EE13__uninit_copyISt13move_iteratorIPmES3_EET0_T_S6_S5_>:
    38cf:	f3 0f 1e fa          	endbr64 
    38d3:	55                   	push   %rbp
    38d4:	48 89 e5             	mov    %rsp,%rbp
    38d7:	48 83 ec 20          	sub    $0x20,%rsp
    38db:	48 89 7d f8          	mov    %rdi,-0x8(%rbp)
    38df:	48 89 75 f0          	mov    %rsi,-0x10(%rbp)
    38e3:	48 89 55 e8          	mov    %rdx,-0x18(%rbp)
    38e7:	48 8b 55 e8          	mov    -0x18(%rbp),%rdx
    38eb:	48 8b 4d f0          	mov    -0x10(%rbp),%rcx
    38ef:	48 8b 45 f8          	mov    -0x8(%rbp),%rax
    38f3:	48 89 ce             	mov    %rcx,%rsi
    38f6:	48 89 c7             	mov    %rax,%rdi
    38f9:	e8 8e 00 00 00       	call   398c <_ZSt4copyISt13move_iteratorIPmES1_ET0_T_S4_S3_>
    38fe:	c9                   	leave  
    38ff:	c3                   	ret    

0000000000003900 <_ZNK9__gnu_cxx13new_allocatorIP10ThreadDataE8max_sizeEv>:
    3900:	f3 0f 1e fa          	endbr64 
    3904:	55                   	push   %rbp
    3905:	48 89 e5             	mov    %rsp,%rbp
    3908:	48 83 ec 10          	sub    $0x10,%rsp
    390c:	48 89 7d f8          	mov    %rdi,-0x8(%rbp)
    3910:	48 8b 45 f8          	mov    -0x8(%rbp),%rax
    3914:	48 89 c7             	mov    %rax,%rdi
    3917:	e8 1e fe ff ff       	call   373a <_ZNK9__gnu_cxx13new_allocatorIP10ThreadDataE11_M_max_sizeEv>
    391c:	c9                   	leave  
    391d:	c3                   	ret    

000000000000391e <_ZSt4copyISt13move_iteratorIPP10ThreadDataES3_ET0_T_S6_S5_>:
    391e:	f3 0f 1e fa          	endbr64 
    3922:	55                   	push   %rbp
    3923:	48 89 e5             	mov    %rsp,%rbp
    3926:	53                   	push   %rbx
    3927:	48 83 ec 28          	sub    $0x28,%rsp
    392b:	48 89 7d e8          	mov    %rdi,-0x18(%rbp)
    392f:	48 89 75 e0          	mov    %rsi,-0x20(%rbp)
    3933:	48 89 55 d8          	mov    %rdx,-0x28(%rbp)
    3937:	48 8b 45 e0          	mov    -0x20(%rbp),%rax
    393b:	48 89 c7             	mov    %rax,%rdi
    393e:	e8 98 00 00 00       	call   39db <_ZSt12__miter_baseIPP10ThreadDataEDTcl12__miter_basecldtfp_4baseEEESt13move_iteratorIT_E>
    3943:	48 89 c3             	mov    %rax,%rbx
    3946:	48 8b 45 e8          	mov    -0x18(%rbp),%rax
    394a:	48 89 c7             	mov    %rax,%rdi
    394d:	e8 89 00 00 00       	call   39db <_ZSt12__miter_baseIPP10ThreadDataEDTcl12__miter_basecldtfp_4baseEEESt13move_iteratorIT_E>
    3952:	48 89 c1             	mov    %rax,%rcx
    3955:	48 8b 45 d8          	mov    -0x28(%rbp),%rax
    3959:	48 89 c2             	mov    %rax,%rdx
    395c:	48 89 de             	mov    %rbx,%rsi
    395f:	48 89 cf             	mov    %rcx,%rdi
    3962:	e8 9a 00 00 00       	call   3a01 <_ZSt13__copy_move_aILb1EPP10ThreadDataS2_ET1_T0_S4_S3_>
    3967:	48 8b 5d f8          	mov    -0x8(%rbp),%rbx
    396b:	c9                   	leave  
    396c:	c3                   	ret    
    396d:	90                   	nop

000000000000396e <_ZNK9__gnu_cxx13new_allocatorImE8max_sizeEv>:
    396e:	f3 0f 1e fa          	endbr64 
    3972:	55                   	push   %rbp
    3973:	48 89 e5             	mov    %rsp,%rbp
    3976:	48 83 ec 10          	sub    $0x10,%rsp
    397a:	48 89 7d f8          	mov    %rdi,-0x8(%rbp)
    397e:	48 8b 45 f8          	mov    -0x8(%rbp),%rax
    3982:	48 89 c7             	mov    %rax,%rdi
    3985:	e8 a2 fe ff ff       	call   382c <_ZNK9__gnu_cxx13new_allocatorImE11_M_max_sizeEv>
    398a:	c9                   	leave  
    398b:	c3                   	ret    

000000000000398c <_ZSt4copyISt13move_iteratorIPmES1_ET0_T_S4_S3_>:
    398c:	f3 0f 1e fa          	endbr64 
    3990:	55                   	push   %rbp
    3991:	48 89 e5             	mov    %rsp,%rbp
    3994:	53                   	push   %rbx
    3995:	48 83 ec 28          	sub    $0x28,%rsp
    3999:	48 89 7d e8          	mov    %rdi,-0x18(%rbp)
    399d:	48 89 75 e0          	mov    %rsi,-0x20(%rbp)
    39a1:	48 89 55 d8          	mov    %rdx,-0x28(%rbp)
    39a5:	48 8b 45 e0          	mov    -0x20(%rbp),%rax
    39a9:	48 89 c7             	mov    %rax,%rdi
    39ac:	e8 be 00 00 00       	call   3a6f <_ZSt12__miter_baseIPmEDTcl12__miter_basecldtfp_4baseEEESt13move_iteratorIT_E>
    39b1:	48 89 c3             	mov    %rax,%rbx
    39b4:	48 8b 45 e8          	mov    -0x18(%rbp),%rax
    39b8:	48 89 c7             	mov    %rax,%rdi
    39bb:	e8 af 00 00 00       	call   3a6f <_ZSt12__miter_baseIPmEDTcl12__miter_basecldtfp_4baseEEESt13move_iteratorIT_E>
    39c0:	48 89 c1             	mov    %rax,%rcx
    39c3:	48 8b 45 d8          	mov    -0x28(%rbp),%rax
    39c7:	48 89 c2             	mov    %rax,%rdx
    39ca:	48 89 de             	mov    %rbx,%rsi
    39cd:	48 89 cf             	mov    %rcx,%rdi
    39d0:	e8 c0 00 00 00       	call   3a95 <_ZSt13__copy_move_aILb1EPmS0_ET1_T0_S2_S1_>
    39d5:	48 8b 5d f8          	mov    -0x8(%rbp),%rbx
    39d9:	c9                   	leave  
    39da:	c3                   	ret    

00000000000039db <_ZSt12__miter_baseIPP10ThreadDataEDTcl12__miter_basecldtfp_4baseEEESt13move_iteratorIT_E>:
    39db:	f3 0f 1e fa          	endbr64 
    39df:	55                   	push   %rbp
    39e0:	48 89 e5             	mov    %rsp,%rbp
    39e3:	48 83 ec 10          	sub    $0x10,%rsp
    39e7:	48 89 7d f8          	mov    %rdi,-0x8(%rbp)
    39eb:	48 8d 45 f8          	lea    -0x8(%rbp),%rax
    39ef:	48 89 c7             	mov    %rax,%rdi
    39f2:	e8 0d 01 00 00       	call   3b04 <_ZNKSt13move_iteratorIPP10ThreadDataE4baseEv>
    39f7:	48 89 c7             	mov    %rax,%rdi
    39fa:	e8 1a 01 00 00       	call   3b19 <_ZSt12__miter_baseIPP10ThreadDataET_S3_>
    39ff:	c9                   	leave  
    3a00:	c3                   	ret    

0000000000003a01 <_ZSt13__copy_move_aILb1EPP10ThreadDataS2_ET1_T0_S4_S3_>:
    3a01:	f3 0f 1e fa          	endbr64 
    3a05:	55                   	push   %rbp
    3a06:	48 89 e5             	mov    %rsp,%rbp
    3a09:	41 54                	push   %r12
    3a0b:	53                   	push   %rbx
    3a0c:	48 83 ec 20          	sub    $0x20,%rsp
    3a10:	48 89 7d e8          	mov    %rdi,-0x18(%rbp)
    3a14:	48 89 75 e0          	mov    %rsi,-0x20(%rbp)
    3a18:	48 89 55 d8          	mov    %rdx,-0x28(%rbp)
    3a1c:	48 8b 45 d8          	mov    -0x28(%rbp),%rax
    3a20:	48 89 c7             	mov    %rax,%rdi
    3a23:	e8 2a fd ff ff       	call   3752 <_ZSt12__niter_baseIPP10ThreadDataET_S3_>
    3a28:	49 89 c4             	mov    %rax,%r12
    3a2b:	48 8b 45 e0          	mov    -0x20(%rbp),%rax
    3a2f:	48 89 c7             	mov    %rax,%rdi
    3a32:	e8 1b fd ff ff       	call   3752 <_ZSt12__niter_baseIPP10ThreadDataET_S3_>
    3a37:	48 89 c3             	mov    %rax,%rbx
    3a3a:	48 8b 45 e8          	mov    -0x18(%rbp),%rax
    3a3e:	48 89 c7             	mov    %rax,%rdi
    3a41:	e8 0c fd ff ff       	call   3752 <_ZSt12__niter_baseIPP10ThreadDataET_S3_>
    3a46:	4c 89 e2             	mov    %r12,%rdx
    3a49:	48 89 de             	mov    %rbx,%rsi
    3a4c:	48 89 c7             	mov    %rax,%rdi
    3a4f:	e8 d7 00 00 00       	call   3b2b <_ZSt14__copy_move_a1ILb1EPP10ThreadDataS2_ET1_T0_S4_S3_>
    3a54:	48 89 c2             	mov    %rax,%rdx
    3a57:	48 8d 45 d8          	lea    -0x28(%rbp),%rax
    3a5b:	48 89 d6             	mov    %rdx,%rsi
    3a5e:	48 89 c7             	mov    %rax,%rdi
    3a61:	e8 f6 00 00 00       	call   3b5c <_ZSt12__niter_wrapIPP10ThreadDataET_RKS3_S3_>
    3a66:	48 83 c4 20          	add    $0x20,%rsp
    3a6a:	5b                   	pop    %rbx
    3a6b:	41 5c                	pop    %r12
    3a6d:	5d                   	pop    %rbp
    3a6e:	c3                   	ret    

0000000000003a6f <_ZSt12__miter_baseIPmEDTcl12__miter_basecldtfp_4baseEEESt13move_iteratorIT_E>:
    3a6f:	f3 0f 1e fa          	endbr64 
    3a73:	55                   	push   %rbp
    3a74:	48 89 e5             	mov    %rsp,%rbp
    3a77:	48 83 ec 10          	sub    $0x10,%rsp
    3a7b:	48 89 7d f8          	mov    %rdi,-0x8(%rbp)
    3a7f:	48 8d 45 f8          	lea    -0x8(%rbp),%rax
    3a83:	48 89 c7             	mov    %rax,%rdi
    3a86:	e8 e7 00 00 00       	call   3b72 <_ZNKSt13move_iteratorIPmE4baseEv>
    3a8b:	48 89 c7             	mov    %rax,%rdi
    3a8e:	e8 f4 00 00 00       	call   3b87 <_ZSt12__miter_baseIPmET_S1_>
    3a93:	c9                   	leave  
    3a94:	c3                   	ret    

0000000000003a95 <_ZSt13__copy_move_aILb1EPmS0_ET1_T0_S2_S1_>:
    3a95:	f3 0f 1e fa          	endbr64 
    3a99:	55                   	push   %rbp
    3a9a:	48 89 e5             	mov    %rsp,%rbp
    3a9d:	41 54                	push   %r12
    3a9f:	53                   	push   %rbx
    3aa0:	48 83 ec 20          	sub    $0x20,%rsp
    3aa4:	48 89 7d e8          	mov    %rdi,-0x18(%rbp)
    3aa8:	48 89 75 e0          	mov    %rsi,-0x20(%rbp)
    3aac:	48 89 55 d8          	mov    %rdx,-0x28(%rbp)
    3ab0:	48 8b 45 d8          	mov    -0x28(%rbp),%rax
    3ab4:	48 89 c7             	mov    %rax,%rdi
    3ab7:	e8 88 fd ff ff       	call   3844 <_ZSt12__niter_baseIPmET_S1_>
    3abc:	49 89 c4             	mov    %rax,%r12
    3abf:	48 8b 45 e0          	mov    -0x20(%rbp),%rax
    3ac3:	48 89 c7             	mov    %rax,%rdi
    3ac6:	e8 79 fd ff ff       	call   3844 <_ZSt12__niter_baseIPmET_S1_>
    3acb:	48 89 c3             	mov    %rax,%rbx
    3ace:	48 8b 45 e8          	mov    -0x18(%rbp),%rax
    3ad2:	48 89 c7             	mov    %rax,%rdi
    3ad5:	e8 6a fd ff ff       	call   3844 <_ZSt12__niter_baseIPmET_S1_>
    3ada:	4c 89 e2             	mov    %r12,%rdx
    3add:	48 89 de             	mov    %rbx,%rsi
    3ae0:	48 89 c7             	mov    %rax,%rdi
    3ae3:	e8 b1 00 00 00       	call   3b99 <_ZSt14__copy_move_a1ILb1EPmS0_ET1_T0_S2_S1_>
    3ae8:	48 89 c2             	mov    %rax,%rdx
    3aeb:	48 8d 45 d8          	lea    -0x28(%rbp),%rax
    3aef:	48 89 d6             	mov    %rdx,%rsi
    3af2:	48 89 c7             	mov    %rax,%rdi
    3af5:	e8 d0 00 00 00       	call   3bca <_ZSt12__niter_wrapIPmET_RKS1_S1_>
    3afa:	48 83 c4 20          	add    $0x20,%rsp
    3afe:	5b                   	pop    %rbx
    3aff:	41 5c                	pop    %r12
    3b01:	5d                   	pop    %rbp
    3b02:	c3                   	ret    
    3b03:	90                   	nop

0000000000003b04 <_ZNKSt13move_iteratorIPP10ThreadDataE4baseEv>:
    3b04:	f3 0f 1e fa          	endbr64 
    3b08:	55                   	push   %rbp
    3b09:	48 89 e5             	mov    %rsp,%rbp
    3b0c:	48 89 7d f8          	mov    %rdi,-0x8(%rbp)
    3b10:	48 8b 45 f8          	mov    -0x8(%rbp),%rax
    3b14:	48 8b 00             	mov    (%rax),%rax
    3b17:	5d                   	pop    %rbp
    3b18:	c3                   	ret    

0000000000003b19 <_ZSt12__miter_baseIPP10ThreadDataET_S3_>:
    3b19:	f3 0f 1e fa          	endbr64 
    3b1d:	55                   	push   %rbp
    3b1e:	48 89 e5             	mov    %rsp,%rbp
    3b21:	48 89 7d f8          	mov    %rdi,-0x8(%rbp)
    3b25:	48 8b 45 f8          	mov    -0x8(%rbp),%rax
    3b29:	5d                   	pop    %rbp
    3b2a:	c3                   	ret    

0000000000003b2b <_ZSt14__copy_move_a1ILb1EPP10ThreadDataS2_ET1_T0_S4_S3_>:
    3b2b:	f3 0f 1e fa          	endbr64 
    3b2f:	55                   	push   %rbp
    3b30:	48 89 e5             	mov    %rsp,%rbp
    3b33:	48 83 ec 20          	sub    $0x20,%rsp
    3b37:	48 89 7d f8          	mov    %rdi,-0x8(%rbp)
    3b3b:	48 89 75 f0          	mov    %rsi,-0x10(%rbp)
    3b3f:	48 89 55 e8          	mov    %rdx,-0x18(%rbp)
    3b43:	48 8b 55 e8          	mov    -0x18(%rbp),%rdx
    3b47:	48 8b 4d f0          	mov    -0x10(%rbp),%rcx
    3b4b:	48 8b 45 f8          	mov    -0x8(%rbp),%rax
    3b4f:	48 89 ce             	mov    %rcx,%rsi
    3b52:	48 89 c7             	mov    %rax,%rdi
    3b55:	e8 86 00 00 00       	call   3be0 <_ZSt14__copy_move_a2ILb1EPP10ThreadDataS2_ET1_T0_S4_S3_>
    3b5a:	c9                   	leave  
    3b5b:	c3                   	ret    

0000000000003b5c <_ZSt12__niter_wrapIPP10ThreadDataET_RKS3_S3_>:
    3b5c:	f3 0f 1e fa          	endbr64 
    3b60:	55                   	push   %rbp
    3b61:	48 89 e5             	mov    %rsp,%rbp
    3b64:	48 89 7d f8          	mov    %rdi,-0x8(%rbp)
    3b68:	48 89 75 f0          	mov    %rsi,-0x10(%rbp)
    3b6c:	48 8b 45 f0          	mov    -0x10(%rbp),%rax
    3b70:	5d                   	pop    %rbp
    3b71:	c3                   	ret    

0000000000003b72 <_ZNKSt13move_iteratorIPmE4baseEv>:
    3b72:	f3 0f 1e fa          	endbr64 
    3b76:	55                   	push   %rbp
    3b77:	48 89 e5             	mov    %rsp,%rbp
    3b7a:	48 89 7d f8          	mov    %rdi,-0x8(%rbp)
    3b7e:	48 8b 45 f8          	mov    -0x8(%rbp),%rax
    3b82:	48 8b 00             	mov    (%rax),%rax
    3b85:	5d                   	pop    %rbp
    3b86:	c3                   	ret    

0000000000003b87 <_ZSt12__miter_baseIPmET_S1_>:
    3b87:	f3 0f 1e fa          	endbr64 
    3b8b:	55                   	push   %rbp
    3b8c:	48 89 e5             	mov    %rsp,%rbp
    3b8f:	48 89 7d f8          	mov    %rdi,-0x8(%rbp)
    3b93:	48 8b 45 f8          	mov    -0x8(%rbp),%rax
    3b97:	5d                   	pop    %rbp
    3b98:	c3                   	ret    

0000000000003b99 <_ZSt14__copy_move_a1ILb1EPmS0_ET1_T0_S2_S1_>:
    3b99:	f3 0f 1e fa          	endbr64 
    3b9d:	55                   	push   %rbp
    3b9e:	48 89 e5             	mov    %rsp,%rbp
    3ba1:	48 83 ec 20          	sub    $0x20,%rsp
    3ba5:	48 89 7d f8          	mov    %rdi,-0x8(%rbp)
    3ba9:	48 89 75 f0          	mov    %rsi,-0x10(%rbp)
    3bad:	48 89 55 e8          	mov    %rdx,-0x18(%rbp)
    3bb1:	48 8b 55 e8          	mov    -0x18(%rbp),%rdx
    3bb5:	48 8b 4d f0          	mov    -0x10(%rbp),%rcx
    3bb9:	48 8b 45 f8          	mov    -0x8(%rbp),%rax
    3bbd:	48 89 ce             	mov    %rcx,%rsi
    3bc0:	48 89 c7             	mov    %rax,%rdi
    3bc3:	e8 49 00 00 00       	call   3c11 <_ZSt14__copy_move_a2ILb1EPmS0_ET1_T0_S2_S1_>
    3bc8:	c9                   	leave  
    3bc9:	c3                   	ret    

0000000000003bca <_ZSt12__niter_wrapIPmET_RKS1_S1_>:
    3bca:	f3 0f 1e fa          	endbr64 
    3bce:	55                   	push   %rbp
    3bcf:	48 89 e5             	mov    %rsp,%rbp
    3bd2:	48 89 7d f8          	mov    %rdi,-0x8(%rbp)
    3bd6:	48 89 75 f0          	mov    %rsi,-0x10(%rbp)
    3bda:	48 8b 45 f0          	mov    -0x10(%rbp),%rax
    3bde:	5d                   	pop    %rbp
    3bdf:	c3                   	ret    

0000000000003be0 <_ZSt14__copy_move_a2ILb1EPP10ThreadDataS2_ET1_T0_S4_S3_>:
    3be0:	f3 0f 1e fa          	endbr64 
    3be4:	55                   	push   %rbp
    3be5:	48 89 e5             	mov    %rsp,%rbp
    3be8:	48 83 ec 20          	sub    $0x20,%rsp
    3bec:	48 89 7d f8          	mov    %rdi,-0x8(%rbp)
    3bf0:	48 89 75 f0          	mov    %rsi,-0x10(%rbp)
    3bf4:	48 89 55 e8          	mov    %rdx,-0x18(%rbp)
    3bf8:	48 8b 55 e8          	mov    -0x18(%rbp),%rdx
    3bfc:	48 8b 4d f0          	mov    -0x10(%rbp),%rcx
    3c00:	48 8b 45 f8          	mov    -0x8(%rbp),%rax
    3c04:	48 89 ce             	mov    %rcx,%rsi
    3c07:	48 89 c7             	mov    %rax,%rdi
    3c0a:	e8 33 00 00 00       	call   3c42 <_ZNSt11__copy_moveILb1ELb1ESt26random_access_iterator_tagE8__copy_mIP10ThreadDataEEPT_PKS5_S8_S6_>
    3c0f:	c9                   	leave  
    3c10:	c3                   	ret    

0000000000003c11 <_ZSt14__copy_move_a2ILb1EPmS0_ET1_T0_S2_S1_>:
    3c11:	f3 0f 1e fa          	endbr64 
    3c15:	55                   	push   %rbp
    3c16:	48 89 e5             	mov    %rsp,%rbp
    3c19:	48 83 ec 20          	sub    $0x20,%rsp
    3c1d:	48 89 7d f8          	mov    %rdi,-0x8(%rbp)
    3c21:	48 89 75 f0          	mov    %rsi,-0x10(%rbp)
    3c25:	48 89 55 e8          	mov    %rdx,-0x18(%rbp)
    3c29:	48 8b 55 e8          	mov    -0x18(%rbp),%rdx
    3c2d:	48 8b 4d f0          	mov    -0x10(%rbp),%rcx
    3c31:	48 8b 45 f8          	mov    -0x8(%rbp),%rax
    3c35:	48 89 ce             	mov    %rcx,%rsi
    3c38:	48 89 c7             	mov    %rax,%rdi
    3c3b:	e8 65 00 00 00       	call   3ca5 <_ZNSt11__copy_moveILb1ELb1ESt26random_access_iterator_tagE8__copy_mImEEPT_PKS3_S6_S4_>
    3c40:	c9                   	leave  
    3c41:	c3                   	ret    

0000000000003c42 <_ZNSt11__copy_moveILb1ELb1ESt26random_access_iterator_tagE8__copy_mIP10ThreadDataEEPT_PKS5_S8_S6_>:
    3c42:	f3 0f 1e fa          	endbr64 
    3c46:	55                   	push   %rbp
    3c47:	48 89 e5             	mov    %rsp,%rbp
    3c4a:	48 83 ec 30          	sub    $0x30,%rsp
    3c4e:	48 89 7d e8          	mov    %rdi,-0x18(%rbp)
    3c52:	48 89 75 e0          	mov    %rsi,-0x20(%rbp)
    3c56:	48 89 55 d8          	mov    %rdx,-0x28(%rbp)
    3c5a:	48 8b 45 e0          	mov    -0x20(%rbp),%rax
    3c5e:	48 2b 45 e8          	sub    -0x18(%rbp),%rax
    3c62:	48 c1 f8 03          	sar    $0x3,%rax
    3c66:	48 89 45 f8          	mov    %rax,-0x8(%rbp)
    3c6a:	48 83 7d f8 00       	cmpq   $0x0,-0x8(%rbp)
    3c6f:	74 1f                	je     3c90 <_ZNSt11__copy_moveILb1ELb1ESt26random_access_iterator_tagE8__copy_mIP10ThreadDataEEPT_PKS5_S8_S6_+0x4e>
    3c71:	48 8b 45 f8          	mov    -0x8(%rbp),%rax
    3c75:	48 8d 14 c5 00 00 00 	lea    0x0(,%rax,8),%rdx
    3c7c:	00 
    3c7d:	48 8b 4d e8          	mov    -0x18(%rbp),%rcx
    3c81:	48 8b 45 d8          	mov    -0x28(%rbp),%rax
    3c85:	48 89 ce             	mov    %rcx,%rsi
    3c88:	48 89 c7             	mov    %rax,%rdi
    3c8b:	e8 b0 d6 ff ff       	call   1340 <memmove@plt>
    3c90:	48 8b 45 f8          	mov    -0x8(%rbp),%rax
    3c94:	48 8d 14 c5 00 00 00 	lea    0x0(,%rax,8),%rdx
    3c9b:	00 
    3c9c:	48 8b 45 d8          	mov    -0x28(%rbp),%rax
    3ca0:	48 01 d0             	add    %rdx,%rax
    3ca3:	c9                   	leave  
    3ca4:	c3                   	ret    

0000000000003ca5 <_ZNSt11__copy_moveILb1ELb1ESt26random_access_iterator_tagE8__copy_mImEEPT_PKS3_S6_S4_>:
    3ca5:	f3 0f 1e fa          	endbr64 
    3ca9:	55                   	push   %rbp
    3caa:	48 89 e5             	mov    %rsp,%rbp
    3cad:	48 83 ec 30          	sub    $0x30,%rsp
    3cb1:	48 89 7d e8          	mov    %rdi,-0x18(%rbp)
    3cb5:	48 89 75 e0          	mov    %rsi,-0x20(%rbp)
    3cb9:	48 89 55 d8          	mov    %rdx,-0x28(%rbp)
    3cbd:	48 8b 45 e0          	mov    -0x20(%rbp),%rax
    3cc1:	48 2b 45 e8          	sub    -0x18(%rbp),%rax
    3cc5:	48 c1 f8 03          	sar    $0x3,%rax
    3cc9:	48 89 45 f8          	mov    %rax,-0x8(%rbp)
    3ccd:	48 83 7d f8 00       	cmpq   $0x0,-0x8(%rbp)
    3cd2:	74 1f                	je     3cf3 <_ZNSt11__copy_moveILb1ELb1ESt26random_access_iterator_tagE8__copy_mImEEPT_PKS3_S6_S4_+0x4e>
    3cd4:	48 8b 45 f8          	mov    -0x8(%rbp),%rax
    3cd8:	48 8d 14 c5 00 00 00 	lea    0x0(,%rax,8),%rdx
    3cdf:	00 
    3ce0:	48 8b 4d e8          	mov    -0x18(%rbp),%rcx
    3ce4:	48 8b 45 d8          	mov    -0x28(%rbp),%rax
    3ce8:	48 89 ce             	mov    %rcx,%rsi
    3ceb:	48 89 c7             	mov    %rax,%rdi
    3cee:	e8 4d d6 ff ff       	call   1340 <memmove@plt>
    3cf3:	48 8b 45 f8          	mov    -0x8(%rbp),%rax
    3cf7:	48 8d 14 c5 00 00 00 	lea    0x0(,%rax,8),%rdx
    3cfe:	00 
    3cff:	48 8b 45 d8          	mov    -0x28(%rbp),%rax
    3d03:	48 01 d0             	add    %rdx,%rax
    3d06:	c9                   	leave  
    3d07:	c3                   	ret    

Disassembly of section .fini:

0000000000003d08 <_fini>:
    3d08:	f3 0f 1e fa          	endbr64 
    3d0c:	48 83 ec 08          	sub    $0x8,%rsp
    3d10:	48 83 c4 08          	add    $0x8,%rsp
    3d14:	c3                   	ret    
